

Microchip MPLAB XC8 Assembler V2.32 build 20210201212658 
                                                                                               Sun Aug 22 20:14:49 2021

Microchip MPLAB XC8 C Compiler v2.32 (Free license) build 20210201212658 Og1 
     1                           	processor	18F45K80
     2                           	fnconf	rparam,??,?,0
     3                           	pagewidth 120
     4                           	opt	flic
     5                           	psect	idataCOMRAM,global,class=CODE,delta=1,noexec
     6                           	psect	smallconst,global,reloc=2,class=SMALLCONST,delta=1,noexec
     7                           	psect	nvCOMRAM,global,class=COMRAM,space=1,delta=1,lowdata,noexec
     8                           	psect	cinit,global,reloc=2,class=CODE,delta=1
     9                           	psect	bssCOMRAM,global,class=COMRAM,space=1,delta=1,lowdata,noexec
    10                           	psect	dataCOMRAM,global,class=COMRAM,space=1,delta=1,lowdata,noexec
    11                           	psect	bssBANK0,global,class=BANK0,space=1,delta=1,lowdata,noexec
    12                           	psect	bssBANK1,global,class=BANK1,space=1,delta=1,lowdata,noexec
    13                           	psect	bssBANK2,global,class=BANK2,space=1,delta=1,lowdata,noexec
    14                           	psect	bssBANK3,global,class=BANK3,space=1,delta=1,lowdata,noexec
    15                           	psect	cstackBANK0,global,class=BANK0,space=1,delta=1,lowdata,noexec
    16                           	psect	cstackCOMRAM,global,class=COMRAM,space=1,delta=1,lowdata,noexec
    17                           	psect	text0,global,reloc=2,class=CODE,delta=1
    18                           	psect	text1,global,reloc=2,class=CODE,delta=1
    19                           	psect	text2,global,reloc=2,class=CODE,delta=1
    20                           	psect	text3,global,reloc=2,class=CODE,delta=1
    21                           	psect	text4,global,reloc=2,class=CODE,delta=1
    22                           	psect	text5,global,reloc=2,class=CODE,delta=1
    23                           	psect	text6,global,reloc=2,class=CODE,delta=1
    24                           	psect	text7,global,reloc=2,class=CODE,delta=1
    25                           	psect	text8,global,reloc=2,class=CODE,delta=1
    26                           	psect	text9,global,reloc=2,class=CODE,delta=1
    27                           	psect	text10,global,reloc=2,class=CODE,delta=1
    28                           	psect	text11,global,reloc=2,class=CODE,delta=1
    29                           	psect	text12,global,reloc=2,class=CODE,delta=1
    30                           	psect	text13,global,reloc=2,class=CODE,delta=1
    31                           	psect	text14,global,reloc=2,class=CODE,delta=1
    32                           	psect	text15,global,reloc=2,class=CODE,delta=1
    33                           	psect	text16,global,reloc=2,class=CODE,delta=1
    34                           	psect	text17,global,reloc=2,class=CODE,delta=1
    35                           	psect	text18,global,reloc=2,class=CODE,delta=1
    36                           	psect	text19,global,reloc=2,class=CODE,delta=1
    37                           	psect	text20,global,reloc=2,class=CODE,delta=1
    38                           	psect	text21,global,reloc=2,class=CODE,delta=1,group=1
    39                           	psect	text22,global,reloc=2,class=CODE,delta=1
    40                           	psect	text23,global,reloc=2,class=CODE,delta=1
    41                           	psect	text24,global,reloc=2,class=CODE,delta=1
    42                           	psect	text25,global,reloc=2,class=CODE,delta=1
    43                           	psect	text26,global,reloc=2,class=CODE,delta=1
    44                           	psect	text27,global,reloc=2,class=CODE,delta=1
    45                           	psect	text28,global,reloc=2,class=CODE,delta=1
    46                           	psect	intcodelo,global,reloc=2,class=CODE,delta=1
    47                           	psect	text30,global,reloc=2,class=CODE,delta=1
    48                           	psect	text31,global,reloc=2,class=CODE,delta=1
    49                           	psect	text32,global,reloc=2,class=CODE,delta=1
    50                           	psect	text33,global,reloc=2,class=CODE,delta=1
    51                           	psect	text34,global,reloc=2,class=CODE,delta=1
    52                           	psect	text35,global,reloc=2,class=CODE,delta=1
    53                           	psect	intcode,global,reloc=2,class=CODE,delta=1
    54                           	psect	intcode_body,global,reloc=2,class=CODE,delta=1
    55                           	psect	text37,global,reloc=2,class=CODE,delta=1
    56                           	psect	text38,global,reloc=2,class=CODE,delta=1
    57                           	psect	text39,global,reloc=2,class=CODE,delta=1
    58                           	psect	text40,global,reloc=2,class=CODE,delta=1
    59                           	psect	text41,global,reloc=2,class=CODE,delta=1
    60                           	psect	text42,global,reloc=2,class=CODE,delta=1
    61                           	psect	intsave_regs,global,class=BIGRAM,space=1,delta=1,noexec
    62                           	psect	text43,global,reloc=2,class=CODE,delta=1
    63                           	psect	rparam,global,class=COMRAM,space=1,delta=1,noexec
    64                           	psect	temp,global,ovrld,common,class=COMRAM,space=1,delta=1
    65                           	psect	idloc,global,abs,ovrld,class=IDLOC,space=5,delta=1,noexec
    66                           	psect	config,global,abs,ovrld,class=CONFIG,space=4,delta=1,noexec
    67  0000                     
    68                           ; Version 2.20
    69                           ; Generated 05/05/2020 GMT
    70                           ; 
    71                           ; Copyright © 2020, Microchip Technology Inc. and its subsidiaries ("Microchip")
    72                           ; All rights reserved.
    73                           ; 
    74                           ; This software is developed by Microchip Technology Inc. and its subsidiaries ("Microch
      +                          ip").
    75                           ; 
    76                           ; Redistribution and use in source and binary forms, with or without modification, are
    77                           ; permitted provided that the following conditions are met:
    78                           ; 
    79                           ;     1. Redistributions of source code must retain the above copyright notice, this lis
      +                          t of
    80                           ;        conditions and the following disclaimer.
    81                           ; 
    82                           ;     2. Redistributions in binary form must reproduce the above copyright notice, this 
      +                          list
    83                           ;        of conditions and the following disclaimer in the documentation and/or other
    84                           ;        materials provided with the distribution.
    85                           ; 
    86                           ;     3. Microchip's name may not be used to endorse or promote products derived from th
      +                          is
    87                           ;        software without specific prior written permission.
    88                           ; 
    89                           ; THIS SOFTWARE IS PROVIDED BY MICROCHIP "AS IS" AND ANY EXPRESS OR IMPLIED WARRANTIES,
    90                           ; INCLUDING, BUT NOT LIMITED TO, THE IMPLIED WARRANTIES OF MERCHANTABILITY AND FITNESS F
      +                          OR
    91                           ; PURPOSE ARE DISCLAIMED.  IN NO EVENT SHALL MICROCHIP BE LIABLE FOR ANY DIRECT, INDIREC
      +                          T,
    92                           ; INCIDENTAL, SPECIAL, EXEMPLARY, OR CONSEQUENTIAL DAMAGES (INCLUDING BUT NOT LIMITED TO
    93                           ; PROCUREMENT OF SUBSTITUTE GOODS OR SERVICES; LOSS OF USE, DATA OR PROFITS; OR BUSINESS
    94                           ; INTERRUPTION) HOWSOEVER CAUSED AND ON ANY THEORY OF LIABILITY, WHETHER IN CONTRACT, ST
      +                          RICT
    95                           ; LIABILITY, OR TORT (INCLUDING NEGLIGENCE OR OTHERWISE) ARISING IN ANY WAY OUT OF THE U
      +                          SE OF
    96                           ; THIS SOFTWARE, EVEN IF ADVISED OF THE POSSIBILITY OF SUCH DAMAGE.
    97                           ; 
    98                           ; 
    99                           ; Code-generator required, PIC18F45K80 Definitions
   100                           ; 
   101                           ; SFR Addresses
   102  0000                     
   103 ;; Function _rd1RegCompleteHandler is unused but had its address taken
   104  0000                     
   105 ;; Function _rd2RegCompleteHandler is unused but had its address taken
   106  0000                     
   107 ;; Function _wr1RegCompleteHandler is unused but had its address taken
   108  0000                     
   109 ;; Function _wr2RegCompleteHandler is unused but had its address taken
   110  0000                     
   111 ;; Function _rdBlkRegCompleteHandler is unused but had its address taken
   112  0000                     
   113 ;; Function _I2C_DO_IDLE is unused but had its address taken
   114  0000                     
   115 ;; Function _I2C_DO_SEND_ADR_READ is unused but had its address taken
   116  0000                     
   117 ;; Function _I2C_DO_SEND_ADR_WRITE is unused but had its address taken
   118  0000                     
   119 ;; Function _I2C_DO_TX is unused but had its address taken
   120  0000                     
   121 ;; Function _I2C_DO_RX is unused but had its address taken
   122  0000                     
   123 ;; Function _I2C_DO_RCEN is unused but had its address taken
   124  0000                     
   125 ;; Function _I2C_DO_TX_EMPTY is unused but had its address taken
   126  0000                     
   127 ;; Function _I2C_DO_SEND_RESTART_READ is unused but had its address taken
   128  0000                     
   129 ;; Function _I2C_DO_SEND_RESTART_WRITE is unused but had its address taken
   130  0000                     
   131 ;; Function _I2C_DO_SEND_RESTART is unused but had its address taken
   132  0000                     
   133 ;; Function _I2C_DO_SEND_STOP is unused but had its address taken
   134  0000                     
   135 ;; Function _I2C_DO_RX_ACK is unused but had its address taken
   136  0000                     
   137 ;; Function _I2C_DO_RX_NACK_STOP is unused but had its address taken
   138  0000                     
   139 ;; Function _I2C_DO_RX_NACK_RESTART is unused but had its address taken
   140  0000                     
   141 ;; Function _I2C_DO_RESET is unused but had its address taken
   142  0000                     
   143 ;; Function _I2C_DO_ADDRESS_NACK is unused but had its address taken
   144  0000                     
   145 ;; Function _I2C_CallbackReturnStop is unused but had its address taken
   146  0000                     
   147 ;; Function _I2C_CallbackReturnReset is unused but had its address taken
   148  0000                     
   149                           	psect	idataCOMRAM
   150  001CC6                     __pidataCOMRAM:
   151                           	callstack 0
   152                           
   153                           ;initializer for _myFlag
   154  001CC6  01                 	db	1
   155                           
   156                           ;initializer for _myPlayFlag
   157  001CC7  01                 	db	1
   158                           
   159                           ;initializer for _myState
   160  001CC8  03                 	db	3
   161                           
   162                           	psect	smallconst
   163  000F00                     __psmallconst:
   164                           	callstack 0
   165  000F00  00                 	db	0
   166  000F01                     _i2c_fsmStateTable:
   167                           	callstack 0
   168  000F01  00                 	db	0
   169  000F02  00                 	db	0
   170  000F03  00                 	db	0
   171  000F04  00                 	db	0
   172  000F05  00                 	db	0
   173  000F06  00                 	db	0
   174  000F07  00                 	db	0
   175  000F08  00                 	db	0
   176  000F09  00                 	db	0
   177  000F0A  00                 	db	0
   178  000F0B  00                 	db	0
   179  000F0C  00                 	db	0
   180  000F0D  00                 	db	0
   181  000F0E  00                 	db	0
   182  000F0F  00                 	db	0
   183  000F10  00                 	db	0
   184  000F11  00                 	db	0
   185  000F12  00                 	db	0
   186  000F13  00                 	db	0
   187  000F14  00                 	db	0
   188  000F15  00                 	db	0
   189  000F16  00                 	db	0
   190  000F17  00                 	db	0
   191  000F18  00                 	db	0
   192  000F19  00                 	db	0
   193  000F1A  00                 	db	0
   194  000F1B  00                 	db	0
   195  000F1C  00                 	db	0
   196  000F1D  00                 	db	0
   197  000F1E  00                 	db	0
   198  000F1F  00                 	db	0
   199  000F20  00                 	db	0
   200  000F21                     __end_of_i2c_fsmStateTable:
   201                           	callstack 0
   202  000F21  25                 	db	37
   203  000F22  75                 	db	117	;'u'
   204  000F23  0D                 	db	13
   205  000F24  0A                 	db	10
   206  000F25  00                 	db	0
   207  000F26  00                 	db	0	; dummy byte at the end
   208  0000                     
   209                           	psect	nvCOMRAM
   210  000025                     __pnvCOMRAM:
   211                           	callstack 0
   212  000025                     _timer0ReloadVal:
   213                           	callstack 0
   214  000025                     	ds	2
   215  000027                     _ADC_InterruptHandler:
   216                           	callstack 0
   217  000027                     	ds	2
   218  000029                     _TMR1_InterruptHandler:
   219                           	callstack 0
   220  000029                     	ds	2
   221  00002B                     _timer1ReloadVal:
   222                           	callstack 0
   223  00002B                     	ds	2
   224  00002D                     _EUSART1_ErrorHandler:
   225                           	callstack 0
   226  00002D                     	ds	2
   227  00002F                     _EUSART1_OverrunErrorHandler:
   228                           	callstack 0
   229  00002F                     	ds	2
   230  000031                     _EUSART1_FramingErrorHandler:
   231                           	callstack 0
   232  000031                     	ds	2
   233  000033                     _EUSART1_RxDefaultInterruptHandler:
   234                           	callstack 0
   235  000033                     	ds	2
   236  000035                     _EUSART1_TxDefaultInterruptHandler:
   237                           	callstack 0
   238  000035                     	ds	2
   239  000037                     _bufNum:
   240                           	callstack 0
   241  000037                     	ds	1
   242  000038                     _eusart1TxBufferRemaining:
   243                           	callstack 0
   244  000038                     	ds	1
   245  0000                     _WPUB	set	3931
   246  0000                     _ANCON1	set	3932
   247  0000                     _ANCON0	set	3933
   248  0000                     _TRISCbits	set	3988
   249  0000                     _LATCbits	set	3979
   250  0000                     _PORTEbits	set	3972
   251  0000                     _T0CON	set	4053
   252  0000                     _TMR0L	set	4054
   253  0000                     _TMR0H	set	4055
   254  0000                     _T0CONbits	set	4053
   255  0000                     _ADCON0bits	set	4034
   256  0000                     _ADRESL	set	4035
   257  0000                     _ADRESH	set	4036
   258  0000                     _ADCON2	set	4032
   259  0000                     _ADCON1	set	4033
   260  0000                     _ADCON0	set	4034
   261  0000                     _T1GCONbits	set	4010
   262  0000                     _T1CONbits	set	4045
   263  0000                     _T1CON	set	4045
   264  0000                     _TMR1L	set	4046
   265  0000                     _TMR1H	set	4047
   266  0000                     _T1GCON	set	4010
   267  0000                     _SSPSTATbits	set	4039
   268  0000                     _PIR2bits	set	4001
   269  0000                     _SSPCON2bits	set	4037
   270  0000                     _SSPBUF	set	4041
   271  0000                     _SSPCON1bits	set	4038
   272  0000                     _SSPADD	set	4040
   273  0000                     _SSPCON2	set	4037
   274  0000                     _SSPCON1	set	4038
   275  0000                     _SSPSTAT	set	4039
   276  0000                     _RCREG1	set	4014
   277  0000                     _RCSTA1bits	set	4011
   278  0000                     _TXREG1	set	4013
   279  0000                     _TXSTA1bits	set	4012
   280  0000                     _SPBRGH1	set	3965
   281  0000                     _SPBRG1	set	4015
   282  0000                     _TXSTA1	set	4012
   283  0000                     _RCSTA1	set	4011
   284  0000                     _BAUDCON1	set	4007
   285  0000                     _PIR1bits	set	3998
   286  0000                     _PIE1bits	set	3997
   287  0000                     _IPR1bits	set	3999
   288  0000                     _RCONbits	set	4048
   289  0000                     _REFOCON	set	3994
   290  0000                     _OSCTUNE	set	3995
   291  0000                     _OSCCON2	set	4050
   292  0000                     _OSCCON	set	4051
   293  0000                     _INTCONbits	set	4082
   294  0000                     _INTCON2bits	set	4081
   295  0000                     _TRISD	set	3989
   296  0000                     _TRISC	set	3988
   297  0000                     _TRISB	set	3987
   298  0000                     _TRISA	set	3986
   299  0000                     _TRISE	set	3990
   300  0000                     _LATC	set	3979
   301  0000                     _LATB	set	3978
   302  0000                     _LATA	set	3977
   303  0000                     _LATD	set	3980
   304  0000                     _LATE	set	3981
   305  0000                     _I2C_STOP	set	32316
   306                           
   307                           ; #config settings
   308                           
   309                           	psect	cinit
   310  0017CA                     __pcinit:
   311                           	callstack 0
   312  0017CA                     start_initialization:
   313                           	callstack 0
   314  0017CA                     __initialization:
   315                           	callstack 0
   316                           
   317                           ; Initialize objects allocated to COMRAM (3 bytes)
   318                           ; load TBLPTR registers with __pidataCOMRAM
   319  0017CA  0EC6               	movlw	low __pidataCOMRAM
   320  0017CC  6EF6               	movwf	tblptrl,c
   321  0017CE  0E1C               	movlw	high __pidataCOMRAM
   322  0017D0  6EF7               	movwf	tblptrh,c
   323  0017D2  0E00               	movlw	low (__pidataCOMRAM shr (0+16))
   324  0017D4  6EF8               	movwf	tblptru,c
   325  0017D6  0009               	tblrd		*+	;fetch initializer
   326  0017D8  CFF5 F04C          	movff	tablat,__pdataCOMRAM
   327  0017DC  0009               	tblrd		*+	;fetch initializer
   328  0017DE  CFF5 F04D          	movff	tablat,__pdataCOMRAM+1
   329  0017E2  0009               	tblrd		*+	;fetch initializer
   330  0017E4  CFF5 F04E          	movff	tablat,__pdataCOMRAM+2
   331                           
   332                           ; Clear objects allocated to BANK3 (128 bytes)
   333  0017E8  EE03  F000         	lfsr	0,__pbssBANK3
   334  0017EC  0E80               	movlw	128
   335  0017EE                     clear_0:
   336  0017EE  6AEE               	clrf	postinc0,c
   337  0017F0  06E8               	decf	wreg,f,c
   338  0017F2  E1FD               	bnz	clear_0
   339                           
   340                           ; Clear objects allocated to BANK2 (256 bytes)
   341  0017F4  EE02  F000         	lfsr	0,__pbssBANK2
   342  0017F8  EE11 F000          	lfsr	1,256
   343  0017FC                     clear_1:
   344  0017FC  6AEE               	clrf	postinc0,c
   345  0017FE  50E5               	movf	postdec1,w,c
   346  001800  50E1               	movf	fsr1l,w,c
   347  001802  E1FC               	bnz	clear_1
   348  001804  50E2               	movf	fsr1h,w,c
   349  001806  E1FA               	bnz	clear_1
   350                           
   351                           ; Clear objects allocated to BANK1 (256 bytes)
   352  001808  EE01  F000         	lfsr	0,__pbssBANK1
   353  00180C  EE11 F000          	lfsr	1,256
   354  001810                     clear_2:
   355  001810  6AEE               	clrf	postinc0,c
   356  001812  50E5               	movf	postdec1,w,c
   357  001814  50E1               	movf	fsr1l,w,c
   358  001816  E1FC               	bnz	clear_2
   359  001818  50E2               	movf	fsr1h,w,c
   360  00181A  E1FA               	bnz	clear_2
   361                           
   362                           ; Clear objects allocated to BANK0 (100 bytes)
   363  00181C  EE00  F060         	lfsr	0,__pbssBANK0
   364  001820  0E64               	movlw	100
   365  001822                     clear_3:
   366  001822  6AEE               	clrf	postinc0,c
   367  001824  06E8               	decf	wreg,f,c
   368  001826  E1FD               	bnz	clear_3
   369                           
   370                           ; Clear objects allocated to COMRAM (19 bytes)
   371  001828  EE00  F039         	lfsr	0,__pbssCOMRAM
   372  00182C  0E13               	movlw	19
   373  00182E                     clear_4:
   374  00182E  6AEE               	clrf	postinc0,c
   375  001830  06E8               	decf	wreg,f,c
   376  001832  E1FD               	bnz	clear_4
   377  001834                     end_of_initialization:
   378                           	callstack 0
   379  001834                     __end_of__initialization:
   380                           	callstack 0
   381  001834  904F               	bcf	int$flags,0,c	;clear compiler interrupt flag (level 1)
   382  001836  924F               	bcf	int$flags,1,c	;clear compiler interrupt flag (level 2)
   383  001838  0E00               	movlw	low (__Lmediumconst shr (0+16))
   384  00183A  6EF8               	movwf	tblptru,c
   385  00183C  0100               	movlb	0
   386  00183E  EF94  F007         	goto	_main	;jump to C main() function
   387                           
   388                           	psect	bssCOMRAM
   389  000039                     __pbssCOMRAM:
   390                           	callstack 0
   391  000039                     _numOfBytesWritten:
   392                           	callstack 0
   393  000039                     	ds	3
   394  00003C                     _page:
   395                           	callstack 0
   396  00003C                     	ds	2
   397  00003E                     _myAdcValue:
   398                           	callstack 0
   399  00003E                     	ds	2
   400  000040                     _stateMachine:
   401                           	callstack 0
   402  000040                     	ds	1
   403  000041                     _Nestor:
   404                           	callstack 0
   405  000041                     	ds	1
   406  000042                     _readOneIsFull:
   407                           	callstack 0
   408  000042                     	ds	1
   409  000043                     _readTwoIsFull:
   410                           	callstack 0
   411  000043                     	ds	1
   412  000044                     _bufNumber:
   413                           	callstack 0
   414  000044                     	ds	1
   415  000045                     _count:
   416                           	callstack 0
   417  000045                     	ds	1
   418  000046                     _eusart1RxLastError:
   419                           	callstack 0
   420  000046                     	ds	1
   421  000047                     _eusart1RxCount:
   422                           	callstack 0
   423  000047                     	ds	1
   424  000048                     _eusart1RxTail:
   425                           	callstack 0
   426  000048                     	ds	1
   427  000049                     _eusart1RxHead:
   428                           	callstack 0
   429  000049                     	ds	1
   430  00004A                     _eusart1TxTail:
   431                           	callstack 0
   432  00004A                     	ds	1
   433  00004B                     _eusart1TxHead:
   434                           	callstack 0
   435  00004B                     	ds	1
   436                           
   437                           	psect	dataCOMRAM
   438  00004C                     __pdataCOMRAM:
   439                           	callstack 0
   440  00004C                     _myFlag:
   441                           	callstack 0
   442  00004C                     	ds	1
   443  00004D                     _myPlayFlag:
   444                           	callstack 0
   445  00004D                     	ds	1
   446  00004E                     _myState:
   447                           	callstack 0
   448  00004E                     	ds	1
   449                           
   450                           	psect	bssBANK0
   451  000060                     __pbssBANK0:
   452                           	callstack 0
   453  000060                     _eusart1RxStatusBuffer:
   454                           	callstack 0
   455  000060                     	ds	64
   456  0000A0                     _I2C_Status:
   457                           	callstack 0
   458  0000A0                     	ds	36
   459                           
   460                           	psect	bssBANK1
   461  000100                     __pbssBANK1:
   462                           	callstack 0
   463  000100                     _eusart1RxBuffer:
   464                           	callstack 0
   465  000100                     	ds	64
   466  000140                     _eusart1TxBuffer:
   467                           	callstack 0
   468  000140                     	ds	64
   469  000180                     _readBufOne:
   470                           	callstack 0
   471  000180                     	ds	128
   472                           
   473                           	psect	bssBANK2
   474  000200                     __pbssBANK2:
   475                           	callstack 0
   476  000200                     _writeBufOne:
   477                           	callstack 0
   478  000200                     	ds	128
   479  000280                     _readBufTwo:
   480                           	callstack 0
   481  000280                     	ds	128
   482                           
   483                           	psect	bssBANK3
   484  000300                     __pbssBANK3:
   485                           	callstack 0
   486  000300                     _writeBufTwo:
   487                           	callstack 0
   488  000300                     	ds	128
   489                           
   490                           	psect	cstackBANK0
   491  0000C4                     __pcstackBANK0:
   492                           	callstack 0
   493  0000C4                     ??_main:
   494                           
   495                           ; 1 bytes @ 0x0
   496  0000C4                     	ds	2
   497                           
   498                           	psect	cstackCOMRAM
   499  000001                     __pcstackCOMRAM:
   500                           	callstack 0
   501  000001                     ?_ADC_GetConversionResult:
   502                           	callstack 0
   503  000001                     i2TMR1_WriteTimer@timerVal:
   504                           	callstack 0
   505                           
   506                           ; 2 bytes @ 0x0
   507  000001                     	ds	2
   508  000003                     ??_ADC_GetConversionResult:
   509  000003                     
   510                           ; 1 bytes @ 0x2
   511  000003                     	ds	2
   512  000005                     ??_INTERRUPT_InterruptManagerHigh:
   513                           
   514                           ; 1 bytes @ 0x4
   515  000005                     	ds	4
   516  000009                     ??_INTERRUPT_InterruptManagerLow:
   517                           
   518                           ; 1 bytes @ 0x8
   519  000009                     	ds	7
   520  000010                     ??_TMR0_Initialize:
   521  000010                     ??_ADC_StartConversion:
   522  000010                     ?___aldiv:
   523                           	callstack 0
   524  000010                     i2c_read@ACK_NACK:
   525                           	callstack 0
   526  000010                     i2c_write@data:
   527                           	callstack 0
   528  000010                     EUSART1_SetFramingErrorHandler@interruptHandler:
   529                           	callstack 0
   530  000010                     EUSART1_SetOverrunErrorHandler@interruptHandler:
   531                           	callstack 0
   532  000010                     EUSART1_SetErrorHandler@interruptHandler:
   533                           	callstack 0
   534  000010                     EUSART1_SetTxInterruptHandler@interruptHandler:
   535                           	callstack 0
   536  000010                     EUSART1_SetRxInterruptHandler@interruptHandler:
   537                           	callstack 0
   538  000010                     TMR1_WriteTimer@timerVal:
   539                           	callstack 0
   540  000010                     TMR1_SetInterruptHandler@InterruptHandler:
   541                           	callstack 0
   542  000010                     ADC_SetInterruptHandler@InterruptHandler:
   543                           	callstack 0
   544  000010                     ___aldiv@dividend:
   545                           	callstack 0
   546                           
   547                           ; 4 bytes @ 0xF
   548  000010                     	ds	1
   549  000011                     ADC_StartConversion@channel:
   550                           	callstack 0
   551  000011                     MAX517_Update@data:
   552                           	callstack 0
   553  000011                     EEPROM_WritePg@page:
   554                           	callstack 0
   555  000011                     EEPROM_ReadPg@page:
   556                           	callstack 0
   557                           
   558                           ; 2 bytes @ 0x10
   559  000011                     	ds	1
   560  000012                     ??_TMR1_Initialize:
   561  000012                     
   562                           ; 1 bytes @ 0x11
   563  000012                     	ds	1
   564  000013                     EEPROM_WritePg@ptr:
   565                           	callstack 0
   566  000013                     EEPROM_ReadPg@ptr:
   567                           	callstack 0
   568                           
   569                           ; 2 bytes @ 0x12
   570  000013                     	ds	1
   571  000014                     ___aldiv@divisor:
   572                           	callstack 0
   573                           
   574                           ; 4 bytes @ 0x13
   575  000014                     	ds	1
   576  000015                     ??_EEPROM_ReadPg:
   577  000015                     ??_EEPROM_WritePg:
   578                           
   579                           ; 1 bytes @ 0x14
   580  000015                     	ds	3
   581  000018                     ___aldiv@counter:
   582                           	callstack 0
   583                           
   584                           ; 1 bytes @ 0x17
   585  000018                     	ds	1
   586  000019                     EEPROM_WritePg@cnt:
   587                           	callstack 0
   588  000019                     ___aldiv@sign:
   589                           	callstack 0
   590  000019                     EEPROM_ReadPg@product:
   591                           	callstack 0
   592                           
   593                           ; 4 bytes @ 0x18
   594  000019                     	ds	1
   595  00001A                     EEPROM_WritePg@product:
   596                           	callstack 0
   597  00001A                     ___aldiv@quotient:
   598                           	callstack 0
   599                           
   600                           ; 4 bytes @ 0x19
   601  00001A                     	ds	3
   602  00001D                     EEPROM_ReadPg@cnt:
   603                           	callstack 0
   604                           
   605                           ; 1 bytes @ 0x1C
   606  00001D                     	ds	1
   607  00001E                     I2C_INTIALIZE@clock:
   608                           	callstack 0
   609                           
   610                           ; 3 bytes @ 0x1D
   611  00001E                     	ds	3
   612  000021                     ??_I2C_INTIALIZE:
   613                           
   614                           ; 1 bytes @ 0x20
   615  000021                     	ds	4
   616                           
   617 ;;
   618 ;;Main: autosize = 0, tempsize = 2, incstack = 0, save=0
   619 ;;
   620 ;; *************** function _main *****************
   621 ;; Defined at:
   622 ;;		line 113 in file "main.c"
   623 ;; Parameters:    Size  Location     Type
   624 ;;		None
   625 ;; Auto vars:     Size  Location     Type
   626 ;;  myTimer         2    0        struct .
   627 ;; Return value:  Size  Location     Type
   628 ;;                  1    wreg      void 
   629 ;; Registers used:
   630 ;;		wreg, fsr2l, fsr2h, status,2, status,0, cstack
   631 ;; Tracked objects:
   632 ;;		On entry : 0/0
   633 ;;		On exit  : 0/0
   634 ;;		Unchanged: 0/0
   635 ;; Data sizes:     COMRAM   BANK0   BANK1   BANK2   BANK3   BANK4   BANK5   BANK6   BANK7   BANK8   BANK9  BANK10  BANK1
      +1  BANK12  BANK13  BANK14
   636 ;;      Params:         0       0       0       0       0       0       0       0       0       0       0       0       
      +0       0       0       0
   637 ;;      Locals:         0       0       0       0       0       0       0       0       0       0       0       0       
      +0       0       0       0
   638 ;;      Temps:          0       2       0       0       0       0       0       0       0       0       0       0       
      +0       0       0       0
   639 ;;      Totals:         0       2       0       0       0       0       0       0       0       0       0       0       
      +0       0       0       0
   640 ;;Total ram usage:        2 bytes
   641 ;; Hardware stack levels required when called: 11
   642 ;; This function calls:
   643 ;;		_ADC_StartConversion
   644 ;;		_EEPROM_ReadPg
   645 ;;		_EEPROM_WritePg
   646 ;;		_I2C_INTIALIZE
   647 ;;		_MAX517_Update
   648 ;;		_SYSTEM_Initialize
   649 ;;		_TMR1_Reload
   650 ;; This function is called by:
   651 ;;		Startup code after reset
   652 ;; This function uses a non-reentrant model
   653 ;;
   654                           
   655                           	psect	text0
   656  000F28                     __ptext0:
   657                           	callstack 0
   658  000F28                     _main:
   659                           	callstack 20
   660  000F28                     
   661                           ;main.c: 118:     SYSTEM_Initialize();
   662  000F28  ECC3  F00D         	call	_SYSTEM_Initialize	;wreg free
   663  000F2C                     
   664                           ;main.c: 125:     (INTCONbits.GIEH = 1);
   665  000F2C  8EF2               	bsf	242,7,c	;volatile
   666  000F2E                     
   667                           ;main.c: 128:     (INTCONbits.GIEL = 1);
   668  000F2E  8CF2               	bsf	242,6,c	;volatile
   669  000F30                     
   670                           ;main.c: 137:     (INTCONbits.PEIE = 1);
   671  000F30  8CF2               	bsf	242,6,c	;volatile
   672                           
   673                           ;main.c: 142:     ADC_StartConversion(3);
   674  000F32  0E03               	movlw	3
   675  000F34  ECE3  F00D         	call	_ADC_StartConversion
   676                           
   677                           ;main.c: 144:     I2C_INTIALIZE(400000);
   678  000F38  0E80               	movlw	128
   679  000F3A  6E1E               	movwf	I2C_INTIALIZE@clock^0,c
   680  000F3C  0E1A               	movlw	26
   681  000F3E  6E1F               	movwf	(I2C_INTIALIZE@clock+1)^0,c
   682  000F40  0E06               	movlw	6
   683  000F42  6E20               	movwf	(I2C_INTIALIZE@clock+2)^0,c
   684  000F44  EC8F  F00C         	call	_I2C_INTIALIZE	;wreg free
   685  000F48                     
   686                           ;main.c: 150:     page = 0;
   687  000F48  0E00               	movlw	0
   688  000F4A  6E3D               	movwf	(_page+1)^0,c	;volatile
   689  000F4C  0E00               	movlw	0
   690  000F4E  6E3C               	movwf	_page^0,c	;volatile
   691  000F50                     
   692                           ;main.c: 152:     bufNum = 1;
   693  000F50  0E01               	movlw	1
   694  000F52  6E37               	movwf	_bufNum^0,c	;volatile
   695  000F54                     
   696                           ;main.c: 154:     readOneIsFull = 0;
   697  000F54  0E00               	movlw	0
   698  000F56  6E42               	movwf	_readOneIsFull^0,c	;volatile
   699  000F58                     
   700                           ;main.c: 155:     readTwoIsFull = 0;
   701  000F58  0E00               	movlw	0
   702  000F5A  6E43               	movwf	_readTwoIsFull^0,c	;volatile
   703  000F5C                     
   704                           ;main.c: 157:     numOfBytesWritten = 0;
   705  000F5C  0E00               	movlw	0
   706  000F5E  6E39               	movwf	_numOfBytesWritten^0,c	;volatile
   707  000F60  0E00               	movlw	0
   708  000F62  6E3A               	movwf	(_numOfBytesWritten+1)^0,c	;volatile
   709  000F64  0E00               	movlw	0
   710  000F66  6E3B               	movwf	(_numOfBytesWritten+2)^0,c	;volatile
   711  000F68                     
   712                           ;main.c: 175:     myState = IDLE;
   713  000F68  0E03               	movlw	3
   714  000F6A  6E4E               	movwf	_myState^0,c	;volatile
   715  000F6C                     l4526:
   716                           
   717                           ;main.c: 179:     {;main.c: 239:         if(PORTEbits.RE2 == 0)
   718  000F6C  B484               	btfsc	132,2,c	;volatile
   719  000F6E  EFBB  F007         	goto	u2761
   720  000F72  EFBD  F007         	goto	u2760
   721  000F76                     u2761:
   722  000F76  EF12  F008         	goto	l4566
   723  000F7A                     u2760:
   724  000F7A                     
   725                           ;main.c: 240:         {;main.c: 241:             _delay((unsigned long)((20)*(64000000/4
      +                          000.0)));
   726  000F7A  0E02               	movlw	2
   727  000F7C  0100               	movlb	0	; () banked
   728  000F7E  6FC5               	movwf	(??_main+1)& (0+255),b
   729  000F80  0EA0               	movlw	160
   730  000F82  6FC4               	movwf	??_main& (0+255),b
   731  000F84  0E92               	movlw	146
   732  000F86                     u2977:
   733  000F86  2EE8               	decfsz	wreg,f,c
   734  000F88  D7FE               	bra	u2977
   735  000F8A  2FC4               	decfsz	??_main& (0+255),f,b
   736  000F8C  D7FC               	bra	u2977
   737  000F8E  2FC5               	decfsz	(??_main+1)& (0+255),f,b
   738  000F90  D7FA               	bra	u2977
   739  000F92  F000               	nop	
   740  000F94                     
   741                           ;main.c: 242:             if(PORTEbits.RE2 == 0)
   742  000F94  B484               	btfsc	132,2,c	;volatile
   743  000F96  EFCF  F007         	goto	u2771
   744  000F9A  EFD1  F007         	goto	u2770
   745  000F9E                     u2771:
   746  000F9E  EF12  F008         	goto	l4566
   747  000FA2                     u2770:
   748  000FA2                     l944:
   749                           
   750                           ;main.c: 244:                 while(PORTEbits.RE2 == 0)
   751  000FA2  A484               	btfss	132,2,c	;volatile
   752  000FA4  EFD6  F007         	goto	u2781
   753  000FA8  EFD8  F007         	goto	u2780
   754  000FAC                     u2781:
   755  000FAC  EFD1  F007         	goto	l944
   756  000FB0                     u2780:
   757  000FB0  B28B               	btfsc	139,1,c	;volatile
   758  000FB2  EFDD  F007         	goto	u2791
   759  000FB6  EFE0  F007         	goto	u2790
   760  000FBA                     u2791:
   761  000FBA  0E01               	movlw	1
   762  000FBC  EFE1  F007         	goto	u2796
   763  000FC0                     u2790:
   764  000FC0  0E00               	movlw	0
   765  000FC2                     u2796:
   766  000FC2  0AFF               	xorlw	255
   767  000FC4  0100               	movlb	0	; () banked
   768  000FC6  6FC4               	movwf	??_main& (0+255),b
   769  000FC8  47C4               	rlncf	??_main& (0+255),f,b
   770  000FCA  508B               	movf	139,w,c	;volatile
   771  000FCC  19C4               	xorwf	??_main& (0+255),w,b
   772  000FCE  0BFD               	andlw	-3
   773  000FD0  19C4               	xorwf	??_main& (0+255),w,b
   774  000FD2  6E8B               	movwf	139,c	;volatile
   775  000FD4                     
   776                           ; BSR set to: 0
   777  000FD4  808B               	bsf	139,0,c	;volatile
   778  000FD6                     
   779                           ; BSR set to: 0
   780                           ;main.c: 250:                 _delay((unsigned long)((1000)*(64000000/4000.0)));
   781  000FD6  0E52               	movlw	82
   782  000FD8  0100               	movlb	0	; () banked
   783  000FDA  6FC5               	movwf	(??_main+1)& (0+255),b
   784  000FDC  0E2B               	movlw	43
   785  000FDE  6FC4               	movwf	??_main& (0+255),b
   786  000FE0  0E00               	movlw	0
   787  000FE2                     u2987:
   788  000FE2  2EE8               	decfsz	wreg,f,c
   789  000FE4  D7FE               	bra	u2987
   790  000FE6  2FC4               	decfsz	??_main& (0+255),f,b
   791  000FE8  D7FC               	bra	u2987
   792  000FEA  2FC5               	decfsz	(??_main+1)& (0+255),f,b
   793  000FEC  D7FA               	bra	u2987
   794  000FEE  F000               	nop	
   795  000FF0  908B               	bcf	139,0,c	;volatile
   796  000FF2                     
   797                           ;main.c: 253:                 (INTCONbits.GIEH = 0);
   798  000FF2  9EF2               	bcf	242,7,c	;volatile
   799  000FF4                     
   800                           ;main.c: 256:                 (INTCONbits.GIEL = 0);
   801  000FF4  9CF2               	bcf	242,6,c	;volatile
   802  000FF6                     
   803                           ;main.c: 257:                 count = 0;
   804  000FF6  0E00               	movlw	0
   805  000FF8  6E45               	movwf	_count^0,c	;volatile
   806  000FFA                     
   807                           ;main.c: 258:                 page = 0;
   808  000FFA  0E00               	movlw	0
   809  000FFC  6E3D               	movwf	(_page+1)^0,c	;volatile
   810  000FFE  0E00               	movlw	0
   811  001000  6E3C               	movwf	_page^0,c	;volatile
   812  001002                     
   813                           ;main.c: 259:                 bufNumber = 1;
   814  001002  0E01               	movlw	1
   815  001004  6E44               	movwf	_bufNumber^0,c	;volatile
   816  001006                     
   817                           ;main.c: 260:                 readOneIsFull = 0;
   818  001006  0E00               	movlw	0
   819  001008  6E42               	movwf	_readOneIsFull^0,c	;volatile
   820  00100A                     
   821                           ;main.c: 261:                 readTwoIsFull = 0;
   822  00100A  0E00               	movlw	0
   823  00100C  6E43               	movwf	_readTwoIsFull^0,c	;volatile
   824  00100E                     
   825                           ;main.c: 262:                 numOfBytesWritten = 0;
   826  00100E  0E00               	movlw	0
   827  001010  6E39               	movwf	_numOfBytesWritten^0,c	;volatile
   828  001012  0E00               	movlw	0
   829  001014  6E3A               	movwf	(_numOfBytesWritten+1)^0,c	;volatile
   830  001016  0E00               	movlw	0
   831  001018  6E3B               	movwf	(_numOfBytesWritten+2)^0,c	;volatile
   832  00101A                     
   833                           ;main.c: 263:                 PIE1bits.ADIE = 1;
   834  00101A  8C9D               	bsf	157,6,c	;volatile
   835  00101C                     
   836                           ;main.c: 264:                 myState = RECORD;
   837  00101C  0E01               	movlw	1
   838  00101E  6E4E               	movwf	_myState^0,c	;volatile
   839  001020                     
   840                           ;main.c: 267:                 (INTCONbits.GIEH = 1);
   841  001020  8EF2               	bsf	242,7,c	;volatile
   842  001022                     
   843                           ;main.c: 270:                 (INTCONbits.GIEL = 1);
   844  001022  8CF2               	bsf	242,6,c	;volatile
   845  001024                     l4566:
   846                           
   847                           ;main.c: 275:         if(PORTEbits.RE1 == 0)
   848  001024  B284               	btfsc	132,1,c	;volatile
   849  001026  EF17  F008         	goto	u2801
   850  00102A  EF19  F008         	goto	u2800
   851  00102E                     u2801:
   852  00102E  EF7C  F008         	goto	l4612
   853  001032                     u2800:
   854  001032                     
   855                           ;main.c: 276:         {;main.c: 277:             _delay((unsigned long)((20)*(64000000/4
      +                          000.0)));
   856  001032  0E02               	movlw	2
   857  001034  0100               	movlb	0	; () banked
   858  001036  6FC5               	movwf	(??_main+1)& (0+255),b
   859  001038  0EA0               	movlw	160
   860  00103A  6FC4               	movwf	??_main& (0+255),b
   861  00103C  0E92               	movlw	146
   862  00103E                     u2997:
   863  00103E  2EE8               	decfsz	wreg,f,c
   864  001040  D7FE               	bra	u2997
   865  001042  2FC4               	decfsz	??_main& (0+255),f,b
   866  001044  D7FC               	bra	u2997
   867  001046  2FC5               	decfsz	(??_main+1)& (0+255),f,b
   868  001048  D7FA               	bra	u2997
   869  00104A  F000               	nop	
   870  00104C                     
   871                           ;main.c: 278:             if(PORTEbits.RE1 == 0)
   872  00104C  B284               	btfsc	132,1,c	;volatile
   873  00104E  EF2B  F008         	goto	u2811
   874  001052  EF2D  F008         	goto	u2810
   875  001056                     u2811:
   876  001056  EF7C  F008         	goto	l4612
   877  00105A                     u2810:
   878  00105A                     l955:
   879                           
   880                           ;main.c: 280:                 while(PORTEbits.RE1 == 0)
   881  00105A  A284               	btfss	132,1,c	;volatile
   882  00105C  EF32  F008         	goto	u2821
   883  001060  EF34  F008         	goto	u2820
   884  001064                     u2821:
   885  001064  EF2D  F008         	goto	l955
   886  001068                     u2820:
   887  001068  B28B               	btfsc	139,1,c	;volatile
   888  00106A  EF39  F008         	goto	u2831
   889  00106E  EF3C  F008         	goto	u2830
   890  001072                     u2831:
   891  001072  0E01               	movlw	1
   892  001074  EF3D  F008         	goto	u2836
   893  001078                     u2830:
   894  001078  0E00               	movlw	0
   895  00107A                     u2836:
   896  00107A  0AFF               	xorlw	255
   897  00107C  0100               	movlb	0	; () banked
   898  00107E  6FC4               	movwf	??_main& (0+255),b
   899  001080  47C4               	rlncf	??_main& (0+255),f,b
   900  001082  508B               	movf	139,w,c	;volatile
   901  001084  19C4               	xorwf	??_main& (0+255),w,b
   902  001086  0BFD               	andlw	-3
   903  001088  19C4               	xorwf	??_main& (0+255),w,b
   904  00108A  6E8B               	movwf	139,c	;volatile
   905  00108C                     
   906                           ; BSR set to: 0
   907  00108C  808B               	bsf	139,0,c	;volatile
   908  00108E                     
   909                           ; BSR set to: 0
   910                           ;main.c: 307:                 _delay((unsigned long)((1000)*(64000000/4000.0)));
   911  00108E  0E52               	movlw	82
   912  001090  0100               	movlb	0	; () banked
   913  001092  6FC5               	movwf	(??_main+1)& (0+255),b
   914  001094  0E2B               	movlw	43
   915  001096  6FC4               	movwf	??_main& (0+255),b
   916  001098  0E00               	movlw	0
   917  00109A                     u3007:
   918  00109A  2EE8               	decfsz	wreg,f,c
   919  00109C  D7FE               	bra	u3007
   920  00109E  2FC4               	decfsz	??_main& (0+255),f,b
   921  0010A0  D7FC               	bra	u3007
   922  0010A2  2FC5               	decfsz	(??_main+1)& (0+255),f,b
   923  0010A4  D7FA               	bra	u3007
   924  0010A6  F000               	nop	
   925  0010A8  908B               	bcf	139,0,c	;volatile
   926  0010AA                     
   927                           ;main.c: 310:                 (INTCONbits.GIEH = 0);
   928  0010AA  9EF2               	bcf	242,7,c	;volatile
   929  0010AC                     
   930                           ;main.c: 313:                 (INTCONbits.GIEL = 0);
   931  0010AC  9CF2               	bcf	242,6,c	;volatile
   932  0010AE                     
   933                           ;main.c: 315:                 count = 0;
   934  0010AE  0E00               	movlw	0
   935  0010B0  6E45               	movwf	_count^0,c	;volatile
   936  0010B2                     
   937                           ;main.c: 316:                 page = 0;
   938  0010B2  0E00               	movlw	0
   939  0010B4  6E3D               	movwf	(_page+1)^0,c	;volatile
   940  0010B6  0E00               	movlw	0
   941  0010B8  6E3C               	movwf	_page^0,c	;volatile
   942  0010BA                     
   943                           ;main.c: 317:                 bufNum = 1;
   944  0010BA  0E01               	movlw	1
   945  0010BC  6E37               	movwf	_bufNum^0,c	;volatile
   946  0010BE                     
   947                           ;main.c: 318:                 readOneIsFull = 0;
   948  0010BE  0E00               	movlw	0
   949  0010C0  6E42               	movwf	_readOneIsFull^0,c	;volatile
   950  0010C2                     
   951                           ;main.c: 319:                 readTwoIsFull = 0;
   952  0010C2  0E00               	movlw	0
   953  0010C4  6E43               	movwf	_readTwoIsFull^0,c	;volatile
   954  0010C6                     
   955                           ;main.c: 320:                 numOfBytesWritten = 0;
   956  0010C6  0E00               	movlw	0
   957  0010C8  6E39               	movwf	_numOfBytesWritten^0,c	;volatile
   958  0010CA  0E00               	movlw	0
   959  0010CC  6E3A               	movwf	(_numOfBytesWritten+1)^0,c	;volatile
   960  0010CE  0E00               	movlw	0
   961  0010D0  6E3B               	movwf	(_numOfBytesWritten+2)^0,c	;volatile
   962  0010D2                     
   963                           ;main.c: 322:                 PIE1bits.ADIE = 0;
   964  0010D2  9C9D               	bcf	157,6,c	;volatile
   965  0010D4                     
   966                           ;main.c: 324:                 EEPROM_ReadPg(page++, (uint8_t *) readBufOne);
   967  0010D4  C03C  F011         	movff	_page,EEPROM_ReadPg@page	;volatile
   968  0010D8  C03D  F012         	movff	_page+1,EEPROM_ReadPg@page+1	;volatile
   969  0010DC  0E80               	movlw	low _readBufOne
   970  0010DE  6E13               	movwf	EEPROM_ReadPg@ptr^0,c
   971  0010E0  0E01               	movlw	high _readBufOne
   972  0010E2  6E14               	movwf	(EEPROM_ReadPg@ptr+1)^0,c
   973  0010E4  ECFE  F009         	call	_EEPROM_ReadPg	;wreg free
   974  0010E8  4A3C               	infsnz	_page^0,f,c	;volatile
   975  0010EA  2A3D               	incf	(_page+1)^0,f,c	;volatile
   976  0010EC                     
   977                           ;main.c: 325:                 TMR1_Reload();
   978  0010EC  EC2D  F00E         	call	_TMR1_Reload	;wreg free
   979  0010F0                     
   980                           ;main.c: 326:                 myState = PLAY;
   981  0010F0  0E02               	movlw	2
   982  0010F2  6E4E               	movwf	_myState^0,c	;volatile
   983  0010F4                     
   984                           ;main.c: 329:                 (INTCONbits.GIEH = 1);
   985  0010F4  8EF2               	bsf	242,7,c	;volatile
   986  0010F6                     
   987                           ;main.c: 332:                 (INTCONbits.GIEL = 1);
   988  0010F6  8CF2               	bsf	242,6,c	;volatile
   989  0010F8                     l4612:
   990                           
   991                           ;main.c: 337:         if (myState == RECORD)
   992  0010F8  044E               	decf	_myState^0,w,c	;volatile
   993  0010FA  A4D8               	btfss	status,2,c
   994  0010FC  EF82  F008         	goto	u2841
   995  001100  EF84  F008         	goto	u2840
   996  001104                     u2841:
   997  001104  EFDC  F008         	goto	l4644
   998  001108                     u2840:
   999  001108                     
  1000                           ;main.c: 338:         {;main.c: 339:             if (readOneIsFull == 1)
  1001  001108  0442               	decf	_readOneIsFull^0,w,c	;volatile
  1002  00110A  A4D8               	btfss	status,2,c
  1003  00110C  EF8A  F008         	goto	u2851
  1004  001110  EF8C  F008         	goto	u2850
  1005  001114                     u2851:
  1006  001114  EFA0  F008         	goto	l4624
  1007  001118                     u2850:
  1008  001118                     
  1009                           ;main.c: 340:             {;main.c: 341:                 readOneIsFull = 0;
  1010  001118  0E00               	movlw	0
  1011  00111A  6E42               	movwf	_readOneIsFull^0,c	;volatile
  1012  00111C                     
  1013                           ;main.c: 342:                 EEPROM_WritePg(page++, (uint8_t *) readBufOne);
  1014  00111C  C03C  F011         	movff	_page,EEPROM_WritePg@page	;volatile
  1015  001120  C03D  F012         	movff	_page+1,EEPROM_WritePg@page+1	;volatile
  1016  001124  0E80               	movlw	low _readBufOne
  1017  001126  6E13               	movwf	EEPROM_WritePg@ptr^0,c
  1018  001128  0E01               	movlw	high _readBufOne
  1019  00112A  6E14               	movwf	(EEPROM_WritePg@ptr+1)^0,c
  1020  00112C  EC72  F00A         	call	_EEPROM_WritePg	;wreg free
  1021  001130  4A3C               	infsnz	_page^0,f,c	;volatile
  1022  001132  2A3D               	incf	(_page+1)^0,f,c	;volatile
  1023  001134                     
  1024                           ;main.c: 344:                 numOfBytesWritten += 128;
  1025  001134  0E80               	movlw	128
  1026  001136  2639               	addwf	_numOfBytesWritten^0,f,c	;volatile
  1027  001138  0E00               	movlw	0
  1028  00113A  223A               	addwfc	(_numOfBytesWritten+1)^0,f,c	;volatile
  1029  00113C  0E00               	movlw	0
  1030  00113E  223B               	addwfc	(_numOfBytesWritten+2)^0,f,c	;volatile
  1031  001140                     l4624:
  1032                           
  1033                           ;main.c: 346:             if (readTwoIsFull == 1)
  1034  001140  0443               	decf	_readTwoIsFull^0,w,c	;volatile
  1035  001142  A4D8               	btfss	status,2,c
  1036  001144  EFA6  F008         	goto	u2861
  1037  001148  EFA8  F008         	goto	u2860
  1038  00114C                     u2861:
  1039  00114C  EFBC  F008         	goto	l4634
  1040  001150                     u2860:
  1041  001150                     
  1042                           ;main.c: 347:             {;main.c: 348:                 readTwoIsFull = 0;
  1043  001150  0E00               	movlw	0
  1044  001152  6E43               	movwf	_readTwoIsFull^0,c	;volatile
  1045  001154                     
  1046                           ;main.c: 349:                 EEPROM_WritePg(page++, (uint8_t *) readBufTwo);
  1047  001154  C03C  F011         	movff	_page,EEPROM_WritePg@page	;volatile
  1048  001158  C03D  F012         	movff	_page+1,EEPROM_WritePg@page+1	;volatile
  1049  00115C  0E80               	movlw	low _readBufTwo
  1050  00115E  6E13               	movwf	EEPROM_WritePg@ptr^0,c
  1051  001160  0E02               	movlw	high _readBufTwo
  1052  001162  6E14               	movwf	(EEPROM_WritePg@ptr+1)^0,c
  1053  001164  EC72  F00A         	call	_EEPROM_WritePg	;wreg free
  1054  001168  4A3C               	infsnz	_page^0,f,c	;volatile
  1055  00116A  2A3D               	incf	(_page+1)^0,f,c	;volatile
  1056  00116C                     
  1057                           ;main.c: 350:                 numOfBytesWritten += 128;
  1058  00116C  0E80               	movlw	128
  1059  00116E  2639               	addwf	_numOfBytesWritten^0,f,c	;volatile
  1060  001170  0E00               	movlw	0
  1061  001172  223A               	addwfc	(_numOfBytesWritten+1)^0,f,c	;volatile
  1062  001174  0E00               	movlw	0
  1063  001176  223B               	addwfc	(_numOfBytesWritten+2)^0,f,c	;volatile
  1064  001178                     l4634:
  1065                           
  1066                           ;main.c: 352:             if (numOfBytesWritten >= 128000)
  1067  001178  0E00               	movlw	0
  1068  00117A  5C39               	subwf	_numOfBytesWritten^0,w,c	;volatile
  1069  00117C  0EF4               	movlw	244
  1070  00117E  583A               	subwfb	(_numOfBytesWritten+1)^0,w,c	;volatile
  1071  001180  0E01               	movlw	1
  1072  001182  583B               	subwfb	(_numOfBytesWritten+2)^0,w,c	;volatile
  1073  001184  A0D8               	btfss	status,0,c
  1074  001186  EFC7  F008         	goto	u2871
  1075  00118A  EFC9  F008         	goto	u2870
  1076  00118E                     u2871:
  1077  00118E  EFB6  F007         	goto	l4526
  1078  001192                     u2870:
  1079  001192                     
  1080                           ;main.c: 353:             {;main.c: 355:                 myState = IDLE;
  1081  001192  0E03               	movlw	3
  1082  001194  6E4E               	movwf	_myState^0,c	;volatile
  1083  001196  808B               	bsf	139,0,c	;volatile
  1084  001198                     
  1085                           ;main.c: 357:                 _delay((unsigned long)((1000)*(64000000/4000.0)));
  1086  001198  0E52               	movlw	82
  1087  00119A  0100               	movlb	0	; () banked
  1088  00119C  6FC5               	movwf	(??_main+1)& (0+255),b
  1089  00119E  0E2B               	movlw	43
  1090  0011A0  6FC4               	movwf	??_main& (0+255),b
  1091  0011A2  0E00               	movlw	0
  1092  0011A4                     u3017:
  1093  0011A4  2EE8               	decfsz	wreg,f,c
  1094  0011A6  D7FE               	bra	u3017
  1095  0011A8  2FC4               	decfsz	??_main& (0+255),f,b
  1096  0011AA  D7FC               	bra	u3017
  1097  0011AC  2FC5               	decfsz	(??_main+1)& (0+255),f,b
  1098  0011AE  D7FA               	bra	u3017
  1099  0011B0  F000               	nop	
  1100  0011B2  908B               	bcf	139,0,c	;volatile
  1101  0011B4  EFB6  F007         	goto	l4526
  1102  0011B8                     l4644:
  1103  0011B8  0E02               	movlw	2
  1104  0011BA  184E               	xorwf	_myState^0,w,c	;volatile
  1105  0011BC  A4D8               	btfss	status,2,c
  1106  0011BE  EFE3  F008         	goto	u2881
  1107  0011C2  EFE5  F008         	goto	u2880
  1108  0011C6                     u2881:
  1109  0011C6  EF74  F009         	goto	l972
  1110  0011CA                     u2880:
  1111  0011CA                     
  1112                           ;main.c: 361:         {;main.c: 362:             if (myPlayFlag == ON)
  1113  0011CA  504D               	movf	_myPlayFlag^0,w,c	;volatile
  1114  0011CC  A4D8               	btfss	status,2,c
  1115  0011CE  EFEB  F008         	goto	u2891
  1116  0011D2  EFED  F008         	goto	u2890
  1117  0011D6                     u2891:
  1118  0011D6  EF16  F009         	goto	l4662
  1119  0011DA                     u2890:
  1120  0011DA                     
  1121                           ;main.c: 363:             {;main.c: 365:                 (INTCONbits.GIEH = 0);
  1122  0011DA  9EF2               	bcf	242,7,c	;volatile
  1123  0011DC                     
  1124                           ;main.c: 366:                 myPlayFlag = OFF;
  1125  0011DC  0E01               	movlw	1
  1126  0011DE  6E4D               	movwf	_myPlayFlag^0,c	;volatile
  1127  0011E0                     
  1128                           ;main.c: 368:                 (INTCONbits.GIEH = 1);
  1129  0011E0  8EF2               	bsf	242,7,c	;volatile
  1130  0011E2                     
  1131                           ;main.c: 369:                 if(bufNum == 1)
  1132  0011E2  0437               	decf	_bufNum^0,w,c	;volatile
  1133  0011E4  A4D8               	btfss	status,2,c
  1134  0011E6  EFF7  F008         	goto	u2901
  1135  0011EA  EFF9  F008         	goto	u2900
  1136  0011EE                     u2901:
  1137  0011EE  EF04  F009         	goto	l4658
  1138  0011F2                     u2900:
  1139  0011F2                     
  1140                           ;main.c: 370:                 {;main.c: 371:                     MAX517_Update(readBufOn
      +                          e[count]);
  1141  0011F2  0E80               	movlw	low _readBufOne
  1142  0011F4  2445               	addwf	_count^0,w,c	;volatile
  1143  0011F6  6ED9               	movwf	fsr2l,c
  1144  0011F8  6ADA               	clrf	fsr2h,c
  1145  0011FA  0E01               	movlw	high _readBufOne
  1146  0011FC  22DA               	addwfc	fsr2h,f,c
  1147  0011FE  50DF               	movf	indf2,w,c
  1148  001200  ECD4  F00D         	call	_MAX517_Update
  1149                           
  1150                           ;main.c: 372:                 }else if(bufNum == 2)
  1151  001204  EF16  F009         	goto	l4662
  1152  001208                     l4658:
  1153  001208  0E02               	movlw	2
  1154  00120A  1837               	xorwf	_bufNum^0,w,c	;volatile
  1155  00120C  A4D8               	btfss	status,2,c
  1156  00120E  EF0B  F009         	goto	u2911
  1157  001212  EF0D  F009         	goto	u2910
  1158  001216                     u2911:
  1159  001216  EF16  F009         	goto	l4662
  1160  00121A                     u2910:
  1161  00121A                     
  1162                           ;main.c: 373:                 {;main.c: 374:                     MAX517_Update(readBufTw
      +                          o[count]);
  1163  00121A  0E80               	movlw	low _readBufTwo
  1164  00121C  2445               	addwf	_count^0,w,c	;volatile
  1165  00121E  6ED9               	movwf	fsr2l,c
  1166  001220  6ADA               	clrf	fsr2h,c
  1167  001222  0E02               	movlw	high _readBufTwo
  1168  001224  22DA               	addwfc	fsr2h,f,c
  1169  001226  50DF               	movf	indf2,w,c
  1170  001228  ECD4  F00D         	call	_MAX517_Update
  1171  00122C                     l4662:
  1172                           
  1173                           ;main.c: 377:             if((count == 0) && (bufNum == 1))
  1174  00122C  5045               	movf	_count^0,w,c	;volatile
  1175  00122E  A4D8               	btfss	status,2,c
  1176  001230  EF1C  F009         	goto	u2921
  1177  001234  EF1E  F009         	goto	u2920
  1178  001238                     u2921:
  1179  001238  EF34  F009         	goto	l4670
  1180  00123C                     u2920:
  1181  00123C  0437               	decf	_bufNum^0,w,c	;volatile
  1182  00123E  A4D8               	btfss	status,2,c
  1183  001240  EF24  F009         	goto	u2931
  1184  001244  EF26  F009         	goto	u2930
  1185  001248                     u2931:
  1186  001248  EF34  F009         	goto	l4670
  1187  00124C                     u2930:
  1188  00124C                     
  1189                           ;main.c: 378:             {;main.c: 380:                 EEPROM_ReadPg(page++, (uint8_t 
      +                          *) readBufTwo);
  1190  00124C  C03C  F011         	movff	_page,EEPROM_ReadPg@page	;volatile
  1191  001250  C03D  F012         	movff	_page+1,EEPROM_ReadPg@page+1	;volatile
  1192  001254  0E80               	movlw	low _readBufTwo
  1193  001256  6E13               	movwf	EEPROM_ReadPg@ptr^0,c
  1194  001258  0E02               	movlw	high _readBufTwo
  1195  00125A  6E14               	movwf	(EEPROM_ReadPg@ptr+1)^0,c
  1196  00125C  ECFE  F009         	call	_EEPROM_ReadPg	;wreg free
  1197  001260                     l4668:
  1198  001260  4A3C               	infsnz	_page^0,f,c	;volatile
  1199  001262  2A3D               	incf	(_page+1)^0,f,c	;volatile
  1200                           
  1201                           ;main.c: 382:             }else if ((count == 0) && (bufNum == 2))
  1202  001264  EF51  F009         	goto	l4678
  1203  001268                     l4670:
  1204  001268  5045               	movf	_count^0,w,c	;volatile
  1205  00126A  A4D8               	btfss	status,2,c
  1206  00126C  EF3A  F009         	goto	u2941
  1207  001270  EF3C  F009         	goto	u2940
  1208  001274                     u2941:
  1209  001274  EF51  F009         	goto	l4678
  1210  001278                     u2940:
  1211  001278  0E02               	movlw	2
  1212  00127A  1837               	xorwf	_bufNum^0,w,c	;volatile
  1213  00127C  A4D8               	btfss	status,2,c
  1214  00127E  EF43  F009         	goto	u2951
  1215  001282  EF45  F009         	goto	u2950
  1216  001286                     u2951:
  1217  001286  EF51  F009         	goto	l4678
  1218  00128A                     u2950:
  1219  00128A                     
  1220                           ;main.c: 383:             {;main.c: 385:                 EEPROM_ReadPg(page++, (uint8_t 
      +                          *)readBufOne);
  1221  00128A  C03C  F011         	movff	_page,EEPROM_ReadPg@page	;volatile
  1222  00128E  C03D  F012         	movff	_page+1,EEPROM_ReadPg@page+1	;volatile
  1223  001292  0E80               	movlw	low _readBufOne
  1224  001294  6E13               	movwf	EEPROM_ReadPg@ptr^0,c
  1225  001296  0E01               	movlw	high _readBufOne
  1226  001298  6E14               	movwf	(EEPROM_ReadPg@ptr+1)^0,c
  1227  00129A  ECFE  F009         	call	_EEPROM_ReadPg	;wreg free
  1228  00129E  EF30  F009         	goto	l4668
  1229  0012A2                     l4678:
  1230                           
  1231                           ;main.c: 388:             if (numOfBytesWritten >= 128000)
  1232  0012A2  0E00               	movlw	0
  1233  0012A4  5C39               	subwf	_numOfBytesWritten^0,w,c	;volatile
  1234  0012A6  0EF4               	movlw	244
  1235  0012A8  583A               	subwfb	(_numOfBytesWritten+1)^0,w,c	;volatile
  1236  0012AA  0E01               	movlw	1
  1237  0012AC  583B               	subwfb	(_numOfBytesWritten+2)^0,w,c	;volatile
  1238  0012AE  A0D8               	btfss	status,0,c
  1239  0012B0  EF5C  F009         	goto	u2961
  1240  0012B4  EF5E  F009         	goto	u2960
  1241  0012B8                     u2961:
  1242  0012B8  EFB6  F007         	goto	l4526
  1243  0012BC                     u2960:
  1244  0012BC                     
  1245                           ;main.c: 389:             {;main.c: 391:                 MAX517_Update(0);
  1246  0012BC  0E00               	movlw	0
  1247  0012BE  ECD4  F00D         	call	_MAX517_Update
  1248  0012C2                     
  1249                           ;main.c: 392:                 myState = IDLE;
  1250  0012C2  0E03               	movlw	3
  1251  0012C4  6E4E               	movwf	_myState^0,c	;volatile
  1252  0012C6  808B               	bsf	139,0,c	;volatile
  1253  0012C8                     
  1254                           ;main.c: 394:                 _delay((unsigned long)((1000)*(64000000/4000.0)));
  1255  0012C8  0E52               	movlw	82
  1256  0012CA  0100               	movlb	0	; () banked
  1257  0012CC  6FC5               	movwf	(??_main+1)& (0+255),b
  1258  0012CE  0E2B               	movlw	43
  1259  0012D0  6FC4               	movwf	??_main& (0+255),b
  1260  0012D2  0E00               	movlw	0
  1261  0012D4                     u3027:
  1262  0012D4  2EE8               	decfsz	wreg,f,c
  1263  0012D6  D7FE               	bra	u3027
  1264  0012D8  2FC4               	decfsz	??_main& (0+255),f,b
  1265  0012DA  D7FC               	bra	u3027
  1266  0012DC  2FC5               	decfsz	(??_main+1)& (0+255),f,b
  1267  0012DE  D7FA               	bra	u3027
  1268  0012E0  F000               	nop	
  1269  0012E2  908B               	bcf	139,0,c	;volatile
  1270  0012E4  EFB6  F007         	goto	l4526
  1271  0012E8                     l972:
  1272  0012E8  EFB6  F007         	goto	l4526
  1273  0012EC  EF63  F000         	goto	start
  1274  0012F0                     __end_of_main:
  1275                           	callstack 0
  1276                           
  1277 ;; *************** function _TMR1_Reload *****************
  1278 ;; Defined at:
  1279 ;;		line 168 in file "mcc_generated_files/tmr1.c"
  1280 ;; Parameters:    Size  Location     Type
  1281 ;;		None
  1282 ;; Auto vars:     Size  Location     Type
  1283 ;;		None
  1284 ;; Return value:  Size  Location     Type
  1285 ;;                  1    wreg      void 
  1286 ;; Registers used:
  1287 ;;		wreg, status,2, cstack
  1288 ;; Tracked objects:
  1289 ;;		On entry : 0/0
  1290 ;;		On exit  : 0/0
  1291 ;;		Unchanged: 0/0
  1292 ;; Data sizes:     COMRAM   BANK0   BANK1   BANK2   BANK3   BANK4   BANK5   BANK6   BANK7   BANK8   BANK9  BANK10  BANK1
      +1  BANK12  BANK13  BANK14
  1293 ;;      Params:         0       0       0       0       0       0       0       0       0       0       0       0       
      +0       0       0       0
  1294 ;;      Locals:         0       0       0       0       0       0       0       0       0       0       0       0       
      +0       0       0       0
  1295 ;;      Temps:          0       0       0       0       0       0       0       0       0       0       0       0       
      +0       0       0       0
  1296 ;;      Totals:         0       0       0       0       0       0       0       0       0       0       0       0       
      +0       0       0       0
  1297 ;;Total ram usage:        0 bytes
  1298 ;; Hardware stack levels used: 1
  1299 ;; Hardware stack levels required when called: 9
  1300 ;; This function calls:
  1301 ;;		_TMR1_WriteTimer
  1302 ;; This function is called by:
  1303 ;;		_main
  1304 ;; This function uses a non-reentrant model
  1305 ;;
  1306                           
  1307                           	psect	text1
  1308  001C5A                     __ptext1:
  1309                           	callstack 0
  1310  001C5A                     _TMR1_Reload:
  1311                           	callstack 21
  1312  001C5A                     
  1313                           ;mcc_generated_files/tmr1.c: 170:     TMR1_WriteTimer(timer1ReloadVal);
  1314  001C5A  C02B  F010         	movff	_timer1ReloadVal,TMR1_WriteTimer@timerVal	;volatile
  1315  001C5E  C02C  F011         	movff	_timer1ReloadVal+1,TMR1_WriteTimer@timerVal+1	;volatile
  1316  001C62  EC76  F00D         	call	_TMR1_WriteTimer	;wreg free
  1317  001C66  0012               	return		;funcret
  1318  001C68                     __end_of_TMR1_Reload:
  1319                           	callstack 0
  1320                           
  1321 ;; *************** function _TMR1_WriteTimer *****************
  1322 ;; Defined at:
  1323 ;;		line 146 in file "mcc_generated_files/tmr1.c"
  1324 ;; Parameters:    Size  Location     Type
  1325 ;;  timerVal        2   15[COMRAM] unsigned short 
  1326 ;; Auto vars:     Size  Location     Type
  1327 ;;		None
  1328 ;; Return value:  Size  Location     Type
  1329 ;;                  1    wreg      void 
  1330 ;; Registers used:
  1331 ;;		wreg, status,2
  1332 ;; Tracked objects:
  1333 ;;		On entry : 0/0
  1334 ;;		On exit  : 0/0
  1335 ;;		Unchanged: 0/0
  1336 ;; Data sizes:     COMRAM   BANK0   BANK1   BANK2   BANK3   BANK4   BANK5   BANK6   BANK7   BANK8   BANK9  BANK10  BANK1
      +1  BANK12  BANK13  BANK14
  1337 ;;      Params:         2       0       0       0       0       0       0       0       0       0       0       0       
      +0       0       0       0
  1338 ;;      Locals:         0       0       0       0       0       0       0       0       0       0       0       0       
      +0       0       0       0
  1339 ;;      Temps:          0       0       0       0       0       0       0       0       0       0       0       0       
      +0       0       0       0
  1340 ;;      Totals:         2       0       0       0       0       0       0       0       0       0       0       0       
      +0       0       0       0
  1341 ;;Total ram usage:        2 bytes
  1342 ;; Hardware stack levels used: 1
  1343 ;; Hardware stack levels required when called: 8
  1344 ;; This function calls:
  1345 ;;		Nothing
  1346 ;; This function is called by:
  1347 ;;		_TMR1_Reload
  1348 ;; This function uses a non-reentrant model
  1349 ;;
  1350                           
  1351                           	psect	text2
  1352  001AEC                     __ptext2:
  1353                           	callstack 0
  1354  001AEC                     _TMR1_WriteTimer:
  1355                           	callstack 21
  1356  001AEC                     
  1357                           ;mcc_generated_files/tmr1.c: 146: void TMR1_WriteTimer(uint16_t timerVal);mcc_generated_
      +                          files/tmr1.c: 147: {;mcc_generated_files/tmr1.c: 148:     if (T1CONbits.nT1SYNC == 1)
  1358  001AEC  A4CD               	btfss	205,2,c	;volatile
  1359  001AEE  EF7B  F00D         	goto	u1461
  1360  001AF2  EF7D  F00D         	goto	u1460
  1361  001AF6                     u1461:
  1362  001AF6  EF85  F00D         	goto	l3340
  1363  001AFA                     u1460:
  1364  001AFA                     
  1365                           ;mcc_generated_files/tmr1.c: 149:     {;mcc_generated_files/tmr1.c: 151:         T1CONbi
      +                          ts.TMR1ON = 0;
  1366  001AFA  90CD               	bcf	205,0,c	;volatile
  1367  001AFC                     
  1368                           ;mcc_generated_files/tmr1.c: 154:         TMR1H = (uint8_t)(timerVal >> 8);
  1369  001AFC  5011               	movf	(TMR1_WriteTimer@timerVal+1)^0,w,c
  1370  001AFE  6ECF               	movwf	207,c	;volatile
  1371  001B00                     
  1372                           ;mcc_generated_files/tmr1.c: 155:         TMR1L = (uint8_t)timerVal;
  1373  001B00  C010  FFCE         	movff	TMR1_WriteTimer@timerVal,4046	;volatile
  1374  001B04                     
  1375                           ;mcc_generated_files/tmr1.c: 158:         T1CONbits.TMR1ON =1;
  1376  001B04  80CD               	bsf	205,0,c	;volatile
  1377                           
  1378                           ;mcc_generated_files/tmr1.c: 159:     }
  1379  001B06  EF89  F00D         	goto	l739
  1380  001B0A                     l3340:
  1381                           
  1382                           ;mcc_generated_files/tmr1.c: 161:     {;mcc_generated_files/tmr1.c: 163:         TMR1H =
      +                           (uint8_t)(timerVal >> 8);
  1383  001B0A  5011               	movf	(TMR1_WriteTimer@timerVal+1)^0,w,c
  1384  001B0C  6ECF               	movwf	207,c	;volatile
  1385  001B0E                     
  1386                           ;mcc_generated_files/tmr1.c: 164:         TMR1L = (uint8_t)timerVal;
  1387  001B0E  C010  FFCE         	movff	TMR1_WriteTimer@timerVal,4046	;volatile
  1388  001B12                     l739:
  1389  001B12  0012               	return		;funcret
  1390  001B14                     __end_of_TMR1_WriteTimer:
  1391                           	callstack 0
  1392                           
  1393 ;; *************** function _SYSTEM_Initialize *****************
  1394 ;; Defined at:
  1395 ;;		line 50 in file "mcc_generated_files/mcc.c"
  1396 ;; Parameters:    Size  Location     Type
  1397 ;;		None
  1398 ;; Auto vars:     Size  Location     Type
  1399 ;;		None
  1400 ;; Return value:  Size  Location     Type
  1401 ;;                  1    wreg      void 
  1402 ;; Registers used:
  1403 ;;		wreg, status,2, status,0, cstack
  1404 ;; Tracked objects:
  1405 ;;		On entry : 0/0
  1406 ;;		On exit  : 0/0
  1407 ;;		Unchanged: 0/0
  1408 ;; Data sizes:     COMRAM   BANK0   BANK1   BANK2   BANK3   BANK4   BANK5   BANK6   BANK7   BANK8   BANK9  BANK10  BANK1
      +1  BANK12  BANK13  BANK14
  1409 ;;      Params:         0       0       0       0       0       0       0       0       0       0       0       0       
      +0       0       0       0
  1410 ;;      Locals:         0       0       0       0       0       0       0       0       0       0       0       0       
      +0       0       0       0
  1411 ;;      Temps:          0       0       0       0       0       0       0       0       0       0       0       0       
      +0       0       0       0
  1412 ;;      Totals:         0       0       0       0       0       0       0       0       0       0       0       0       
      +0       0       0       0
  1413 ;;Total ram usage:        0 bytes
  1414 ;; Hardware stack levels used: 1
  1415 ;; Hardware stack levels required when called: 10
  1416 ;; This function calls:
  1417 ;;		_ADC_Initialize
  1418 ;;		_EUSART1_Initialize
  1419 ;;		_I2C_Initialize
  1420 ;;		_INTERRUPT_Initialize
  1421 ;;		_OSCILLATOR_Initialize
  1422 ;;		_PIN_MANAGER_Initialize
  1423 ;;		_TMR0_Initialize
  1424 ;;		_TMR1_Initialize
  1425 ;; This function is called by:
  1426 ;;		_main
  1427 ;; This function uses a non-reentrant model
  1428 ;;
  1429                           
  1430                           	psect	text3
  1431  001B86                     __ptext3:
  1432                           	callstack 0
  1433  001B86                     _SYSTEM_Initialize:
  1434                           	callstack 20
  1435  001B86                     
  1436                           ;mcc_generated_files/mcc.c: 53:     INTERRUPT_Initialize();
  1437  001B86  EC34  F00E         	call	_INTERRUPT_Initialize	;wreg free
  1438  001B8A                     
  1439                           ;mcc_generated_files/mcc.c: 54:     I2C_Initialize();
  1440  001B8A  ECFC  F00D         	call	_I2C_Initialize	;wreg free
  1441  001B8E                     
  1442                           ;mcc_generated_files/mcc.c: 55:     PIN_MANAGER_Initialize();
  1443  001B8E  EC15  F00D         	call	_PIN_MANAGER_Initialize	;wreg free
  1444  001B92                     
  1445                           ;mcc_generated_files/mcc.c: 56:     OSCILLATOR_Initialize();
  1446  001B92  EC24  F00E         	call	_OSCILLATOR_Initialize	;wreg free
  1447  001B96                     
  1448                           ;mcc_generated_files/mcc.c: 57:     ADC_Initialize();
  1449  001B96  ECB1  F00D         	call	_ADC_Initialize	;wreg free
  1450  001B9A                     
  1451                           ;mcc_generated_files/mcc.c: 58:     TMR1_Initialize();
  1452  001B9A  ECFA  F00C         	call	_TMR1_Initialize	;wreg free
  1453  001B9E                     
  1454                           ;mcc_generated_files/mcc.c: 59:     TMR0_Initialize();
  1455  001B9E  EC9E  F00D         	call	_TMR0_Initialize	;wreg free
  1456  001BA2                     
  1457                           ;mcc_generated_files/mcc.c: 60:     EUSART1_Initialize();
  1458  001BA2  EC21  F00C         	call	_EUSART1_Initialize	;wreg free
  1459  001BA6  0012               	return		;funcret
  1460  001BA8                     __end_of_SYSTEM_Initialize:
  1461                           	callstack 0
  1462                           
  1463 ;; *************** function _TMR1_Initialize *****************
  1464 ;; Defined at:
  1465 ;;		line 90 in file "mcc_generated_files/tmr1.c"
  1466 ;; Parameters:    Size  Location     Type
  1467 ;;		None
  1468 ;; Auto vars:     Size  Location     Type
  1469 ;;		None
  1470 ;; Return value:  Size  Location     Type
  1471 ;;                  1    wreg      void 
  1472 ;; Registers used:
  1473 ;;		wreg, status,2, status,0, cstack
  1474 ;; Tracked objects:
  1475 ;;		On entry : 0/0
  1476 ;;		On exit  : 0/0
  1477 ;;		Unchanged: 0/0
  1478 ;; Data sizes:     COMRAM   BANK0   BANK1   BANK2   BANK3   BANK4   BANK5   BANK6   BANK7   BANK8   BANK9  BANK10  BANK1
      +1  BANK12  BANK13  BANK14
  1479 ;;      Params:         0       0       0       0       0       0       0       0       0       0       0       0       
      +0       0       0       0
  1480 ;;      Locals:         0       0       0       0       0       0       0       0       0       0       0       0       
      +0       0       0       0
  1481 ;;      Temps:          2       0       0       0       0       0       0       0       0       0       0       0       
      +0       0       0       0
  1482 ;;      Totals:         2       0       0       0       0       0       0       0       0       0       0       0       
      +0       0       0       0
  1483 ;;Total ram usage:        2 bytes
  1484 ;; Hardware stack levels used: 1
  1485 ;; Hardware stack levels required when called: 9
  1486 ;; This function calls:
  1487 ;;		_TMR1_SetInterruptHandler
  1488 ;; This function is called by:
  1489 ;;		_SYSTEM_Initialize
  1490 ;; This function uses a non-reentrant model
  1491 ;;
  1492                           
  1493                           	psect	text4
  1494  0019F4                     __ptext4:
  1495                           	callstack 0
  1496  0019F4                     _TMR1_Initialize:
  1497                           	callstack 20
  1498  0019F4                     
  1499                           ;mcc_generated_files/tmr1.c: 95:     T1GCON = 0x00;
  1500  0019F4  0E00               	movlw	0
  1501  0019F6  6EAA               	movwf	170,c	;volatile
  1502  0019F8                     
  1503                           ;mcc_generated_files/tmr1.c: 98:     TMR1H = 0xFF;
  1504  0019F8  68CF               	setf	207,c	;volatile
  1505                           
  1506                           ;mcc_generated_files/tmr1.c: 101:     TMR1L = 0x06;
  1507  0019FA  0E06               	movlw	6
  1508  0019FC  6ECE               	movwf	206,c	;volatile
  1509  0019FE                     
  1510                           ;mcc_generated_files/tmr1.c: 104:     PIR1bits.TMR1IF = 0;
  1511  0019FE  909E               	bcf	158,0,c	;volatile
  1512  001A00                     
  1513                           ;mcc_generated_files/tmr1.c: 107:     timer1ReloadVal=(uint16_t)((TMR1H << 8) | TMR1L);
  1514  001A00  50CE               	movf	206,w,c	;volatile
  1515  001A02  CFCF F012          	movff	4047,??_TMR1_Initialize	;volatile
  1516  001A06  6A13               	clrf	(??_TMR1_Initialize+1)^0,c
  1517  001A08  C012  F013         	movff	??_TMR1_Initialize,??_TMR1_Initialize+1
  1518  001A0C  6A12               	clrf	??_TMR1_Initialize^0,c
  1519  001A0E  1012               	iorwf	??_TMR1_Initialize^0,w,c
  1520  001A10  6E2B               	movwf	_timer1ReloadVal^0,c	;volatile
  1521  001A12  5013               	movf	(??_TMR1_Initialize+1)^0,w,c
  1522  001A14  6E2C               	movwf	(_timer1ReloadVal+1)^0,c	;volatile
  1523  001A16                     
  1524                           ;mcc_generated_files/tmr1.c: 110:     PIE1bits.TMR1IE = 1;
  1525  001A16  809D               	bsf	157,0,c	;volatile
  1526  001A18                     
  1527                           ;mcc_generated_files/tmr1.c: 113:     TMR1_SetInterruptHandler(TMR1_DefaultInterruptHand
      +                          ler);
  1528  001A18  0E38               	movlw	low _TMR1_DefaultInterruptHandler
  1529  001A1A  6E10               	movwf	TMR1_SetInterruptHandler@InterruptHandler^0,c
  1530  001A1C  0E17               	movlw	high _TMR1_DefaultInterruptHandler
  1531  001A1E  6E11               	movwf	(TMR1_SetInterruptHandler@InterruptHandler+1)^0,c
  1532  001A20  EC3A  F00E         	call	_TMR1_SetInterruptHandler	;wreg free
  1533  001A24                     
  1534                           ;mcc_generated_files/tmr1.c: 116:     T1CON = 0x31;
  1535  001A24  0E31               	movlw	49
  1536  001A26  6ECD               	movwf	205,c	;volatile
  1537  001A28  0012               	return		;funcret
  1538  001A2A                     __end_of_TMR1_Initialize:
  1539                           	callstack 0
  1540                           
  1541 ;; *************** function _TMR1_SetInterruptHandler *****************
  1542 ;; Defined at:
  1543 ;;		line 197 in file "mcc_generated_files/tmr1.c"
  1544 ;; Parameters:    Size  Location     Type
  1545 ;;  InterruptHan    2   15[COMRAM] PTR FTN()void 
  1546 ;;		 -> TMR1_DefaultInterruptHandler(1), 
  1547 ;; Auto vars:     Size  Location     Type
  1548 ;;		None
  1549 ;; Return value:  Size  Location     Type
  1550 ;;                  1    wreg      void 
  1551 ;; Registers used:
  1552 ;;		wreg, status,2, status,0
  1553 ;; Tracked objects:
  1554 ;;		On entry : 0/0
  1555 ;;		On exit  : 0/0
  1556 ;;		Unchanged: 0/0
  1557 ;; Data sizes:     COMRAM   BANK0   BANK1   BANK2   BANK3   BANK4   BANK5   BANK6   BANK7   BANK8   BANK9  BANK10  BANK1
      +1  BANK12  BANK13  BANK14
  1558 ;;      Params:         2       0       0       0       0       0       0       0       0       0       0       0       
      +0       0       0       0
  1559 ;;      Locals:         0       0       0       0       0       0       0       0       0       0       0       0       
      +0       0       0       0
  1560 ;;      Temps:          0       0       0       0       0       0       0       0       0       0       0       0       
      +0       0       0       0
  1561 ;;      Totals:         2       0       0       0       0       0       0       0       0       0       0       0       
      +0       0       0       0
  1562 ;;Total ram usage:        2 bytes
  1563 ;; Hardware stack levels used: 1
  1564 ;; Hardware stack levels required when called: 8
  1565 ;; This function calls:
  1566 ;;		Nothing
  1567 ;; This function is called by:
  1568 ;;		_TMR1_Initialize
  1569 ;; This function uses a non-reentrant model
  1570 ;;
  1571                           
  1572                           	psect	text5
  1573  001C74                     __ptext5:
  1574                           	callstack 0
  1575  001C74                     _TMR1_SetInterruptHandler:
  1576                           	callstack 20
  1577  001C74                     
  1578                           ;mcc_generated_files/tmr1.c: 198:     TMR1_InterruptHandler = InterruptHandler;
  1579  001C74  C010  F029         	movff	TMR1_SetInterruptHandler@InterruptHandler,_TMR1_InterruptHandler
  1580  001C78  C011  F02A         	movff	TMR1_SetInterruptHandler@InterruptHandler+1,_TMR1_InterruptHandler+1
  1581  001C7C  0012               	return		;funcret
  1582  001C7E                     __end_of_TMR1_SetInterruptHandler:
  1583                           	callstack 0
  1584                           
  1585 ;; *************** function _TMR0_Initialize *****************
  1586 ;; Defined at:
  1587 ;;		line 66 in file "mcc_generated_files/tmr0.c"
  1588 ;; Parameters:    Size  Location     Type
  1589 ;;		None
  1590 ;; Auto vars:     Size  Location     Type
  1591 ;;		None
  1592 ;; Return value:  Size  Location     Type
  1593 ;;                  1    wreg      void 
  1594 ;; Registers used:
  1595 ;;		wreg, status,2, status,0
  1596 ;; Tracked objects:
  1597 ;;		On entry : 0/0
  1598 ;;		On exit  : 0/0
  1599 ;;		Unchanged: 0/0
  1600 ;; Data sizes:     COMRAM   BANK0   BANK1   BANK2   BANK3   BANK4   BANK5   BANK6   BANK7   BANK8   BANK9  BANK10  BANK1
      +1  BANK12  BANK13  BANK14
  1601 ;;      Params:         0       0       0       0       0       0       0       0       0       0       0       0       
      +0       0       0       0
  1602 ;;      Locals:         0       0       0       0       0       0       0       0       0       0       0       0       
      +0       0       0       0
  1603 ;;      Temps:          2       0       0       0       0       0       0       0       0       0       0       0       
      +0       0       0       0
  1604 ;;      Totals:         2       0       0       0       0       0       0       0       0       0       0       0       
      +0       0       0       0
  1605 ;;Total ram usage:        2 bytes
  1606 ;; Hardware stack levels used: 1
  1607 ;; Hardware stack levels required when called: 8
  1608 ;; This function calls:
  1609 ;;		Nothing
  1610 ;; This function is called by:
  1611 ;;		_SYSTEM_Initialize
  1612 ;; This function uses a non-reentrant model
  1613 ;;
  1614                           
  1615                           	psect	text6
  1616  001B3C                     __ptext6:
  1617                           	callstack 0
  1618  001B3C                     _TMR0_Initialize:
  1619                           	callstack 21
  1620  001B3C                     
  1621                           ;mcc_generated_files/tmr0.c: 71:     T0CONbits.T08BIT = 0;
  1622  001B3C  9CD5               	bcf	213,6,c	;volatile
  1623                           
  1624                           ;mcc_generated_files/tmr0.c: 74:     TMR0H = 0xFF;
  1625  001B3E  68D7               	setf	215,c	;volatile
  1626  001B40                     
  1627                           ;mcc_generated_files/tmr0.c: 77:     TMR0L = 0x5F;
  1628  001B40  0E5F               	movlw	95
  1629  001B42  6ED6               	movwf	214,c	;volatile
  1630  001B44                     
  1631                           ;mcc_generated_files/tmr0.c: 81:     timer0ReloadVal = (uint16_t)((TMR0H << 8) | TMR0L);
  1632  001B44  50D6               	movf	214,w,c	;volatile
  1633  001B46  CFD7 F010          	movff	4055,??_TMR0_Initialize	;volatile
  1634  001B4A  6A11               	clrf	(??_TMR0_Initialize+1)^0,c
  1635  001B4C  C010  F011         	movff	??_TMR0_Initialize,??_TMR0_Initialize+1
  1636  001B50  6A10               	clrf	??_TMR0_Initialize^0,c
  1637  001B52  1010               	iorwf	??_TMR0_Initialize^0,w,c
  1638  001B54  6E25               	movwf	_timer0ReloadVal^0,c	;volatile
  1639  001B56  5011               	movf	(??_TMR0_Initialize+1)^0,w,c
  1640  001B58  6E26               	movwf	(_timer0ReloadVal+1)^0,c	;volatile
  1641  001B5A                     
  1642                           ;mcc_generated_files/tmr0.c: 84:     INTCONbits.TMR0IF = 0;
  1643  001B5A  94F2               	bcf	242,2,c	;volatile
  1644  001B5C                     
  1645                           ;mcc_generated_files/tmr0.c: 87:     T0CON = 0x97;
  1646  001B5C  0E97               	movlw	151
  1647  001B5E  6ED5               	movwf	213,c	;volatile
  1648  001B60  0012               	return		;funcret
  1649  001B62                     __end_of_TMR0_Initialize:
  1650                           	callstack 0
  1651                           
  1652 ;; *************** function _PIN_MANAGER_Initialize *****************
  1653 ;; Defined at:
  1654 ;;		line 55 in file "mcc_generated_files/pin_manager.c"
  1655 ;; Parameters:    Size  Location     Type
  1656 ;;		None
  1657 ;; Auto vars:     Size  Location     Type
  1658 ;;		None
  1659 ;; Return value:  Size  Location     Type
  1660 ;;                  1    wreg      void 
  1661 ;; Registers used:
  1662 ;;		wreg, status,2
  1663 ;; Tracked objects:
  1664 ;;		On entry : 0/0
  1665 ;;		On exit  : 0/0
  1666 ;;		Unchanged: 0/0
  1667 ;; Data sizes:     COMRAM   BANK0   BANK1   BANK2   BANK3   BANK4   BANK5   BANK6   BANK7   BANK8   BANK9  BANK10  BANK1
      +1  BANK12  BANK13  BANK14
  1668 ;;      Params:         0       0       0       0       0       0       0       0       0       0       0       0       
      +0       0       0       0
  1669 ;;      Locals:         0       0       0       0       0       0       0       0       0       0       0       0       
      +0       0       0       0
  1670 ;;      Temps:          0       0       0       0       0       0       0       0       0       0       0       0       
      +0       0       0       0
  1671 ;;      Totals:         0       0       0       0       0       0       0       0       0       0       0       0       
      +0       0       0       0
  1672 ;;Total ram usage:        0 bytes
  1673 ;; Hardware stack levels used: 1
  1674 ;; Hardware stack levels required when called: 8
  1675 ;; This function calls:
  1676 ;;		Nothing
  1677 ;; This function is called by:
  1678 ;;		_SYSTEM_Initialize
  1679 ;; This function uses a non-reentrant model
  1680 ;;
  1681                           
  1682                           	psect	text7
  1683  001A2A                     __ptext7:
  1684                           	callstack 0
  1685  001A2A                     _PIN_MANAGER_Initialize:
  1686                           	callstack 21
  1687  001A2A                     
  1688                           ;mcc_generated_files/pin_manager.c: 60:     LATE = 0x00;
  1689  001A2A  0E00               	movlw	0
  1690  001A2C  6E8D               	movwf	141,c	;volatile
  1691                           
  1692                           ;mcc_generated_files/pin_manager.c: 61:     LATD = 0x00;
  1693  001A2E  0E00               	movlw	0
  1694  001A30  6E8C               	movwf	140,c	;volatile
  1695                           
  1696                           ;mcc_generated_files/pin_manager.c: 62:     LATA = 0x00;
  1697  001A32  0E00               	movlw	0
  1698  001A34  6E89               	movwf	137,c	;volatile
  1699                           
  1700                           ;mcc_generated_files/pin_manager.c: 63:     LATB = 0x00;
  1701  001A36  0E00               	movlw	0
  1702  001A38  6E8A               	movwf	138,c	;volatile
  1703                           
  1704                           ;mcc_generated_files/pin_manager.c: 64:     LATC = 0x00;
  1705  001A3A  0E00               	movlw	0
  1706  001A3C  6E8B               	movwf	139,c	;volatile
  1707                           
  1708                           ;mcc_generated_files/pin_manager.c: 69:     TRISE = 0x07;
  1709  001A3E  0E07               	movlw	7
  1710  001A40  6E96               	movwf	150,c	;volatile
  1711                           
  1712                           ;mcc_generated_files/pin_manager.c: 70:     TRISA = 0xEF;
  1713  001A42  0EEF               	movlw	239
  1714  001A44  6E92               	movwf	146,c	;volatile
  1715  001A46                     
  1716                           ;mcc_generated_files/pin_manager.c: 71:     TRISB = 0xFF;
  1717  001A46  6893               	setf	147,c	;volatile
  1718                           
  1719                           ;mcc_generated_files/pin_manager.c: 72:     TRISC = 0xBC;
  1720  001A48  0EBC               	movlw	188
  1721  001A4A  6E94               	movwf	148,c	;volatile
  1722  001A4C                     
  1723                           ;mcc_generated_files/pin_manager.c: 73:     TRISD = 0xFF;
  1724  001A4C  6895               	setf	149,c	;volatile
  1725                           
  1726                           ;mcc_generated_files/pin_manager.c: 78:     ANCON0 = 0x3F;
  1727  001A4E  0E3F               	movlw	63
  1728  001A50  010F               	movlb	15	; () banked
  1729  001A52  6F5D               	movwf	93,b	;volatile
  1730                           
  1731                           ;mcc_generated_files/pin_manager.c: 79:     ANCON1 = 0x7F;
  1732  001A54  0E7F               	movlw	127
  1733  001A56  6F5C               	movwf	92,b	;volatile
  1734                           
  1735                           ;mcc_generated_files/pin_manager.c: 84:     WPUB = 0x00;
  1736  001A58  0E00               	movlw	0
  1737  001A5A  6F5B               	movwf	91,b	;volatile
  1738  001A5C                     
  1739                           ; BSR set to: 15
  1740                           ;mcc_generated_files/pin_manager.c: 85:     INTCON2bits.nRBPU = 1;
  1741  001A5C  8EF1               	bsf	241,7,c	;volatile
  1742  001A5E                     
  1743                           ; BSR set to: 15
  1744  001A5E  0012               	return		;funcret
  1745  001A60                     __end_of_PIN_MANAGER_Initialize:
  1746                           	callstack 0
  1747                           
  1748 ;; *************** function _OSCILLATOR_Initialize *****************
  1749 ;; Defined at:
  1750 ;;		line 63 in file "mcc_generated_files/mcc.c"
  1751 ;; Parameters:    Size  Location     Type
  1752 ;;		None
  1753 ;; Auto vars:     Size  Location     Type
  1754 ;;		None
  1755 ;; Return value:  Size  Location     Type
  1756 ;;                  1    wreg      void 
  1757 ;; Registers used:
  1758 ;;		wreg, status,2
  1759 ;; Tracked objects:
  1760 ;;		On entry : 0/0
  1761 ;;		On exit  : 0/0
  1762 ;;		Unchanged: 0/0
  1763 ;; Data sizes:     COMRAM   BANK0   BANK1   BANK2   BANK3   BANK4   BANK5   BANK6   BANK7   BANK8   BANK9  BANK10  BANK1
      +1  BANK12  BANK13  BANK14
  1764 ;;      Params:         0       0       0       0       0       0       0       0       0       0       0       0       
      +0       0       0       0
  1765 ;;      Locals:         0       0       0       0       0       0       0       0       0       0       0       0       
      +0       0       0       0
  1766 ;;      Temps:          0       0       0       0       0       0       0       0       0       0       0       0       
      +0       0       0       0
  1767 ;;      Totals:         0       0       0       0       0       0       0       0       0       0       0       0       
      +0       0       0       0
  1768 ;;Total ram usage:        0 bytes
  1769 ;; Hardware stack levels used: 1
  1770 ;; Hardware stack levels required when called: 8
  1771 ;; This function calls:
  1772 ;;		Nothing
  1773 ;; This function is called by:
  1774 ;;		_SYSTEM_Initialize
  1775 ;; This function uses a non-reentrant model
  1776 ;;
  1777                           
  1778                           	psect	text8
  1779  001C48                     __ptext8:
  1780                           	callstack 0
  1781  001C48                     _OSCILLATOR_Initialize:
  1782                           	callstack 21
  1783  001C48                     
  1784                           ;mcc_generated_files/mcc.c: 66:     OSCCON = 0x60;
  1785  001C48  0E60               	movlw	96
  1786  001C4A  6ED3               	movwf	211,c	;volatile
  1787                           
  1788                           ;mcc_generated_files/mcc.c: 68:     OSCCON2 = 0x00;
  1789  001C4C  0E00               	movlw	0
  1790  001C4E  6ED2               	movwf	210,c	;volatile
  1791                           
  1792                           ;mcc_generated_files/mcc.c: 70:     OSCTUNE = 0x00;
  1793  001C50  0E00               	movlw	0
  1794  001C52  6E9B               	movwf	155,c	;volatile
  1795                           
  1796                           ;mcc_generated_files/mcc.c: 72:     REFOCON = 0x00;
  1797  001C54  0E00               	movlw	0
  1798  001C56  6E9A               	movwf	154,c	;volatile
  1799  001C58  0012               	return		;funcret
  1800  001C5A                     __end_of_OSCILLATOR_Initialize:
  1801                           	callstack 0
  1802                           
  1803 ;; *************** function _INTERRUPT_Initialize *****************
  1804 ;; Defined at:
  1805 ;;		line 52 in file "mcc_generated_files/interrupt_manager.c"
  1806 ;; Parameters:    Size  Location     Type
  1807 ;;		None
  1808 ;; Auto vars:     Size  Location     Type
  1809 ;;		None
  1810 ;; Return value:  Size  Location     Type
  1811 ;;                  1    wreg      void 
  1812 ;; Registers used:
  1813 ;;		None
  1814 ;; Tracked objects:
  1815 ;;		On entry : 0/0
  1816 ;;		On exit  : 0/0
  1817 ;;		Unchanged: 0/0
  1818 ;; Data sizes:     COMRAM   BANK0   BANK1   BANK2   BANK3   BANK4   BANK5   BANK6   BANK7   BANK8   BANK9  BANK10  BANK1
      +1  BANK12  BANK13  BANK14
  1819 ;;      Params:         0       0       0       0       0       0       0       0       0       0       0       0       
      +0       0       0       0
  1820 ;;      Locals:         0       0       0       0       0       0       0       0       0       0       0       0       
      +0       0       0       0
  1821 ;;      Temps:          0       0       0       0       0       0       0       0       0       0       0       0       
      +0       0       0       0
  1822 ;;      Totals:         0       0       0       0       0       0       0       0       0       0       0       0       
      +0       0       0       0
  1823 ;;Total ram usage:        0 bytes
  1824 ;; Hardware stack levels used: 1
  1825 ;; Hardware stack levels required when called: 8
  1826 ;; This function calls:
  1827 ;;		Nothing
  1828 ;; This function is called by:
  1829 ;;		_SYSTEM_Initialize
  1830 ;; This function uses a non-reentrant model
  1831 ;;
  1832                           
  1833                           	psect	text9
  1834  001C68                     __ptext9:
  1835                           	callstack 0
  1836  001C68                     _INTERRUPT_Initialize:
  1837                           	callstack 21
  1838  001C68                     
  1839                           ;mcc_generated_files/interrupt_manager.c: 55:     RCONbits.IPEN = 1;
  1840  001C68  8ED0               	bsf	208,7,c	;volatile
  1841                           
  1842                           ;mcc_generated_files/interrupt_manager.c: 60:     IPR1bits.ADIP = 1;
  1843  001C6A  8C9F               	bsf	159,6,c	;volatile
  1844                           
  1845                           ;mcc_generated_files/interrupt_manager.c: 63:     IPR1bits.TMR1IP = 1;
  1846  001C6C  809F               	bsf	159,0,c	;volatile
  1847                           
  1848                           ;mcc_generated_files/interrupt_manager.c: 67:     IPR1bits.TX1IP = 0;
  1849  001C6E  989F               	bcf	159,4,c	;volatile
  1850                           
  1851                           ;mcc_generated_files/interrupt_manager.c: 70:     IPR1bits.RC1IP = 0;
  1852  001C70  9A9F               	bcf	159,5,c	;volatile
  1853  001C72  0012               	return		;funcret
  1854  001C74                     __end_of_INTERRUPT_Initialize:
  1855                           	callstack 0
  1856                           
  1857 ;; *************** function _I2C_Initialize *****************
  1858 ;; Defined at:
  1859 ;;		line 167 in file "mcc_generated_files/i2c_master.c"
  1860 ;; Parameters:    Size  Location     Type
  1861 ;;		None
  1862 ;; Auto vars:     Size  Location     Type
  1863 ;;		None
  1864 ;; Return value:  Size  Location     Type
  1865 ;;                  1    wreg      void 
  1866 ;; Registers used:
  1867 ;;		wreg, status,2
  1868 ;; Tracked objects:
  1869 ;;		On entry : 0/0
  1870 ;;		On exit  : 0/0
  1871 ;;		Unchanged: 0/0
  1872 ;; Data sizes:     COMRAM   BANK0   BANK1   BANK2   BANK3   BANK4   BANK5   BANK6   BANK7   BANK8   BANK9  BANK10  BANK1
      +1  BANK12  BANK13  BANK14
  1873 ;;      Params:         0       0       0       0       0       0       0       0       0       0       0       0       
      +0       0       0       0
  1874 ;;      Locals:         0       0       0       0       0       0       0       0       0       0       0       0       
      +0       0       0       0
  1875 ;;      Temps:          0       0       0       0       0       0       0       0       0       0       0       0       
      +0       0       0       0
  1876 ;;      Totals:         0       0       0       0       0       0       0       0       0       0       0       0       
      +0       0       0       0
  1877 ;;Total ram usage:        0 bytes
  1878 ;; Hardware stack levels used: 1
  1879 ;; Hardware stack levels required when called: 8
  1880 ;; This function calls:
  1881 ;;		Nothing
  1882 ;; This function is called by:
  1883 ;;		_SYSTEM_Initialize
  1884 ;; This function uses a non-reentrant model
  1885 ;;
  1886                           
  1887                           	psect	text10
  1888  001BF8                     __ptext10:
  1889                           	callstack 0
  1890  001BF8                     _I2C_Initialize:
  1891                           	callstack 21
  1892  001BF8                     
  1893                           ;mcc_generated_files/i2c_master.c: 169:     SSPSTAT = 0x00;
  1894  001BF8  0E00               	movlw	0
  1895  001BFA  6EC7               	movwf	199,c	;volatile
  1896                           
  1897                           ;mcc_generated_files/i2c_master.c: 170:     SSPCON1 = 0x08;
  1898  001BFC  0E08               	movlw	8
  1899  001BFE  6EC6               	movwf	198,c	;volatile
  1900                           
  1901                           ;mcc_generated_files/i2c_master.c: 171:     SSPCON2 = 0x00;
  1902  001C00  0E00               	movlw	0
  1903  001C02  6EC5               	movwf	197,c	;volatile
  1904                           
  1905                           ;mcc_generated_files/i2c_master.c: 172:     SSPADD = 0x27;
  1906  001C04  0E27               	movlw	39
  1907  001C06  6EC8               	movwf	200,c	;volatile
  1908  001C08                     
  1909                           ;mcc_generated_files/i2c_master.c: 173:     SSPCON1bits.SSPEN = 0;
  1910  001C08  9AC6               	bcf	198,5,c	;volatile
  1911  001C0A  0012               	return		;funcret
  1912  001C0C                     __end_of_I2C_Initialize:
  1913                           	callstack 0
  1914                           
  1915 ;; *************** function _EUSART1_Initialize *****************
  1916 ;; Defined at:
  1917 ;;		line 88 in file "mcc_generated_files/eusart1.c"
  1918 ;; Parameters:    Size  Location     Type
  1919 ;;		None
  1920 ;; Auto vars:     Size  Location     Type
  1921 ;;		None
  1922 ;; Return value:  Size  Location     Type
  1923 ;;                  1    wreg      void 
  1924 ;; Registers used:
  1925 ;;		wreg, status,2, status,0, cstack
  1926 ;; Tracked objects:
  1927 ;;		On entry : 0/0
  1928 ;;		On exit  : 0/0
  1929 ;;		Unchanged: 0/0
  1930 ;; Data sizes:     COMRAM   BANK0   BANK1   BANK2   BANK3   BANK4   BANK5   BANK6   BANK7   BANK8   BANK9  BANK10  BANK1
      +1  BANK12  BANK13  BANK14
  1931 ;;      Params:         0       0       0       0       0       0       0       0       0       0       0       0       
      +0       0       0       0
  1932 ;;      Locals:         0       0       0       0       0       0       0       0       0       0       0       0       
      +0       0       0       0
  1933 ;;      Temps:          0       0       0       0       0       0       0       0       0       0       0       0       
      +0       0       0       0
  1934 ;;      Totals:         0       0       0       0       0       0       0       0       0       0       0       0       
      +0       0       0       0
  1935 ;;Total ram usage:        0 bytes
  1936 ;; Hardware stack levels used: 1
  1937 ;; Hardware stack levels required when called: 9
  1938 ;; This function calls:
  1939 ;;		_EUSART1_SetErrorHandler
  1940 ;;		_EUSART1_SetFramingErrorHandler
  1941 ;;		_EUSART1_SetOverrunErrorHandler
  1942 ;;		_EUSART1_SetRxInterruptHandler
  1943 ;;		_EUSART1_SetTxInterruptHandler
  1944 ;; This function is called by:
  1945 ;;		_SYSTEM_Initialize
  1946 ;; This function uses a non-reentrant model
  1947 ;;
  1948                           
  1949                           	psect	text11
  1950  001842                     __ptext11:
  1951                           	callstack 0
  1952  001842                     _EUSART1_Initialize:
  1953                           	callstack 20
  1954  001842                     
  1955                           ;mcc_generated_files/eusart1.c: 91:     PIE1bits.RC1IE = 0;
  1956  001842  9A9D               	bcf	157,5,c	;volatile
  1957  001844                     
  1958                           ;mcc_generated_files/eusart1.c: 92:     EUSART1_SetRxInterruptHandler(EUSART1_Receive_IS
      +                          R);
  1959  001844  0EC8               	movlw	low _EUSART1_Receive_ISR
  1960  001846  6E10               	movwf	EUSART1_SetRxInterruptHandler@interruptHandler^0,c
  1961  001848  0E15               	movlw	high _EUSART1_Receive_ISR
  1962  00184A  6E11               	movwf	(EUSART1_SetRxInterruptHandler@interruptHandler+1)^0,c
  1963  00184C  EC44  F00E         	call	_EUSART1_SetRxInterruptHandler	;wreg free
  1964  001850                     
  1965                           ;mcc_generated_files/eusart1.c: 93:     PIE1bits.TX1IE = 0;
  1966  001850  989D               	bcf	157,4,c	;volatile
  1967                           
  1968                           ;mcc_generated_files/eusart1.c: 94:     EUSART1_SetTxInterruptHandler(EUSART1_Transmit_I
      +                          SR);
  1969  001852  0E78               	movlw	low _EUSART1_Transmit_ISR
  1970  001854  6E10               	movwf	EUSART1_SetTxInterruptHandler@interruptHandler^0,c
  1971  001856  0E19               	movlw	high _EUSART1_Transmit_ISR
  1972  001858  6E11               	movwf	(EUSART1_SetTxInterruptHandler@interruptHandler+1)^0,c
  1973  00185A  EC3F  F00E         	call	_EUSART1_SetTxInterruptHandler	;wreg free
  1974  00185E                     
  1975                           ;mcc_generated_files/eusart1.c: 98:     BAUDCON1 = 0x08;
  1976  00185E  0E08               	movlw	8
  1977  001860  6EA7               	movwf	167,c	;volatile
  1978  001862                     
  1979                           ;mcc_generated_files/eusart1.c: 101:     RCSTA1 = 0x90;
  1980  001862  0E90               	movlw	144
  1981  001864  6EAB               	movwf	171,c	;volatile
  1982  001866                     
  1983                           ;mcc_generated_files/eusart1.c: 104:     TXSTA1 = 0x24;
  1984  001866  0E24               	movlw	36
  1985  001868  6EAC               	movwf	172,c	;volatile
  1986  00186A                     
  1987                           ;mcc_generated_files/eusart1.c: 107:     SPBRG1 = 0x8A;
  1988  00186A  0E8A               	movlw	138
  1989  00186C  6EAF               	movwf	175,c	;volatile
  1990  00186E                     
  1991                           ;mcc_generated_files/eusart1.c: 110:     SPBRGH1 = 0x00;
  1992  00186E  0E00               	movlw	0
  1993  001870  6E7D               	movwf	125,c	;volatile
  1994  001872                     
  1995                           ;mcc_generated_files/eusart1.c: 113:     EUSART1_SetFramingErrorHandler(EUSART1_DefaultF
      +                          ramingErrorHandler);
  1996  001872  0ECA               	movlw	low _EUSART1_DefaultFramingErrorHandler
  1997  001874  6E10               	movwf	EUSART1_SetFramingErrorHandler@interruptHandler^0,c
  1998  001876  0E1C               	movlw	high _EUSART1_DefaultFramingErrorHandler
  1999  001878  6E11               	movwf	(EUSART1_SetFramingErrorHandler@interruptHandler+1)^0,c
  2000  00187A  EC4E  F00E         	call	_EUSART1_SetFramingErrorHandler	;wreg free
  2001  00187E                     
  2002                           ;mcc_generated_files/eusart1.c: 114:     EUSART1_SetOverrunErrorHandler(EUSART1_DefaultO
      +                          verrunErrorHandler);
  2003  00187E  0EBA               	movlw	low _EUSART1_DefaultOverrunErrorHandler
  2004  001880  6E10               	movwf	EUSART1_SetOverrunErrorHandler@interruptHandler^0,c
  2005  001882  0E1C               	movlw	high _EUSART1_DefaultOverrunErrorHandler
  2006  001884  6E11               	movwf	(EUSART1_SetOverrunErrorHandler@interruptHandler+1)^0,c
  2007  001886  EC49  F00E         	call	_EUSART1_SetOverrunErrorHandler	;wreg free
  2008  00188A                     
  2009                           ;mcc_generated_files/eusart1.c: 115:     EUSART1_SetErrorHandler(EUSART1_DefaultErrorHan
      +                          dler);
  2010  00188A  0EC0               	movlw	low _EUSART1_DefaultErrorHandler
  2011  00188C  6E10               	movwf	EUSART1_SetErrorHandler@interruptHandler^0,c
  2012  00188E  0E1C               	movlw	high _EUSART1_DefaultErrorHandler
  2013  001890  6E11               	movwf	(EUSART1_SetErrorHandler@interruptHandler+1)^0,c
  2014  001892  EC53  F00E         	call	_EUSART1_SetErrorHandler	;wreg free
  2015                           
  2016                           ;mcc_generated_files/eusart1.c: 117:     eusart1RxLastError.status = 0;
  2017  001896  0E00               	movlw	0
  2018  001898  6E46               	movwf	_eusart1RxLastError^0,c	;volatile
  2019                           
  2020                           ;mcc_generated_files/eusart1.c: 120:     eusart1TxHead = 0;
  2021  00189A  0E00               	movlw	0
  2022  00189C  6E4B               	movwf	_eusart1TxHead^0,c	;volatile
  2023                           
  2024                           ;mcc_generated_files/eusart1.c: 121:     eusart1TxTail = 0;
  2025  00189E  0E00               	movlw	0
  2026  0018A0  6E4A               	movwf	_eusart1TxTail^0,c	;volatile
  2027                           
  2028                           ;mcc_generated_files/eusart1.c: 122:     eusart1TxBufferRemaining = sizeof(eusart1TxBuff
      +                          er);
  2029  0018A2  0E40               	movlw	64
  2030  0018A4  6E38               	movwf	_eusart1TxBufferRemaining^0,c	;volatile
  2031                           
  2032                           ;mcc_generated_files/eusart1.c: 124:     eusart1RxHead = 0;
  2033  0018A6  0E00               	movlw	0
  2034  0018A8  6E49               	movwf	_eusart1RxHead^0,c	;volatile
  2035                           
  2036                           ;mcc_generated_files/eusart1.c: 125:     eusart1RxTail = 0;
  2037  0018AA  0E00               	movlw	0
  2038  0018AC  6E48               	movwf	_eusart1RxTail^0,c	;volatile
  2039                           
  2040                           ;mcc_generated_files/eusart1.c: 126:     eusart1RxCount = 0;
  2041  0018AE  0E00               	movlw	0
  2042  0018B0  6E47               	movwf	_eusart1RxCount^0,c	;volatile
  2043  0018B2                     
  2044                           ;mcc_generated_files/eusart1.c: 129:     PIE1bits.RC1IE = 1;
  2045  0018B2  8A9D               	bsf	157,5,c	;volatile
  2046  0018B4  0012               	return		;funcret
  2047  0018B6                     __end_of_EUSART1_Initialize:
  2048                           	callstack 0
  2049                           
  2050 ;; *************** function _EUSART1_SetTxInterruptHandler *****************
  2051 ;; Defined at:
  2052 ;;		line 276 in file "mcc_generated_files/eusart1.c"
  2053 ;; Parameters:    Size  Location     Type
  2054 ;;  interruptHan    2   15[COMRAM] PTR FTN()void 
  2055 ;;		 -> EUSART1_Transmit_ISR(1), 
  2056 ;; Auto vars:     Size  Location     Type
  2057 ;;		None
  2058 ;; Return value:  Size  Location     Type
  2059 ;;                  1    wreg      void 
  2060 ;; Registers used:
  2061 ;;		wreg, status,2, status,0
  2062 ;; Tracked objects:
  2063 ;;		On entry : 0/0
  2064 ;;		On exit  : 0/0
  2065 ;;		Unchanged: 0/0
  2066 ;; Data sizes:     COMRAM   BANK0   BANK1   BANK2   BANK3   BANK4   BANK5   BANK6   BANK7   BANK8   BANK9  BANK10  BANK1
      +1  BANK12  BANK13  BANK14
  2067 ;;      Params:         2       0       0       0       0       0       0       0       0       0       0       0       
      +0       0       0       0
  2068 ;;      Locals:         0       0       0       0       0       0       0       0       0       0       0       0       
      +0       0       0       0
  2069 ;;      Temps:          0       0       0       0       0       0       0       0       0       0       0       0       
      +0       0       0       0
  2070 ;;      Totals:         2       0       0       0       0       0       0       0       0       0       0       0       
      +0       0       0       0
  2071 ;;Total ram usage:        2 bytes
  2072 ;; Hardware stack levels used: 1
  2073 ;; Hardware stack levels required when called: 8
  2074 ;; This function calls:
  2075 ;;		Nothing
  2076 ;; This function is called by:
  2077 ;;		_EUSART1_Initialize
  2078 ;; This function uses a non-reentrant model
  2079 ;;
  2080                           
  2081                           	psect	text12
  2082  001C7E                     __ptext12:
  2083                           	callstack 0
  2084  001C7E                     _EUSART1_SetTxInterruptHandler:
  2085                           	callstack 20
  2086  001C7E                     
  2087                           ;mcc_generated_files/eusart1.c: 277:     EUSART1_TxDefaultInterruptHandler = interruptHa
      +                          ndler;
  2088  001C7E  C010  F035         	movff	EUSART1_SetTxInterruptHandler@interruptHandler,_EUSART1_TxDefaultInterruptHandler
  2089  001C82  C011  F036         	movff	EUSART1_SetTxInterruptHandler@interruptHandler+1,_EUSART1_TxDefaultInterruptHandl
      +                          er+1
  2090  001C86  0012               	return		;funcret
  2091  001C88                     __end_of_EUSART1_SetTxInterruptHandler:
  2092                           	callstack 0
  2093                           
  2094 ;; *************** function _EUSART1_SetRxInterruptHandler *****************
  2095 ;; Defined at:
  2096 ;;		line 280 in file "mcc_generated_files/eusart1.c"
  2097 ;; Parameters:    Size  Location     Type
  2098 ;;  interruptHan    2   15[COMRAM] PTR FTN()void 
  2099 ;;		 -> EUSART1_Receive_ISR(1), 
  2100 ;; Auto vars:     Size  Location     Type
  2101 ;;		None
  2102 ;; Return value:  Size  Location     Type
  2103 ;;                  1    wreg      void 
  2104 ;; Registers used:
  2105 ;;		wreg, status,2, status,0
  2106 ;; Tracked objects:
  2107 ;;		On entry : 0/0
  2108 ;;		On exit  : 0/0
  2109 ;;		Unchanged: 0/0
  2110 ;; Data sizes:     COMRAM   BANK0   BANK1   BANK2   BANK3   BANK4   BANK5   BANK6   BANK7   BANK8   BANK9  BANK10  BANK1
      +1  BANK12  BANK13  BANK14
  2111 ;;      Params:         2       0       0       0       0       0       0       0       0       0       0       0       
      +0       0       0       0
  2112 ;;      Locals:         0       0       0       0       0       0       0       0       0       0       0       0       
      +0       0       0       0
  2113 ;;      Temps:          0       0       0       0       0       0       0       0       0       0       0       0       
      +0       0       0       0
  2114 ;;      Totals:         2       0       0       0       0       0       0       0       0       0       0       0       
      +0       0       0       0
  2115 ;;Total ram usage:        2 bytes
  2116 ;; Hardware stack levels used: 1
  2117 ;; Hardware stack levels required when called: 8
  2118 ;; This function calls:
  2119 ;;		Nothing
  2120 ;; This function is called by:
  2121 ;;		_EUSART1_Initialize
  2122 ;; This function uses a non-reentrant model
  2123 ;;
  2124                           
  2125                           	psect	text13
  2126  001C88                     __ptext13:
  2127                           	callstack 0
  2128  001C88                     _EUSART1_SetRxInterruptHandler:
  2129                           	callstack 20
  2130  001C88                     
  2131                           ;mcc_generated_files/eusart1.c: 281:     EUSART1_RxDefaultInterruptHandler = interruptHa
      +                          ndler;
  2132  001C88  C010  F033         	movff	EUSART1_SetRxInterruptHandler@interruptHandler,_EUSART1_RxDefaultInterruptHandler
  2133  001C8C  C011  F034         	movff	EUSART1_SetRxInterruptHandler@interruptHandler+1,_EUSART1_RxDefaultInterruptHandl
      +                          er+1
  2134  001C90  0012               	return		;funcret
  2135  001C92                     __end_of_EUSART1_SetRxInterruptHandler:
  2136                           	callstack 0
  2137                           
  2138 ;; *************** function _EUSART1_SetOverrunErrorHandler *****************
  2139 ;; Defined at:
  2140 ;;		line 268 in file "mcc_generated_files/eusart1.c"
  2141 ;; Parameters:    Size  Location     Type
  2142 ;;  interruptHan    2   15[COMRAM] PTR FTN()void 
  2143 ;;		 -> EUSART1_DefaultOverrunErrorHandler(1), 
  2144 ;; Auto vars:     Size  Location     Type
  2145 ;;		None
  2146 ;; Return value:  Size  Location     Type
  2147 ;;                  1    wreg      void 
  2148 ;; Registers used:
  2149 ;;		wreg, status,2, status,0
  2150 ;; Tracked objects:
  2151 ;;		On entry : 0/0
  2152 ;;		On exit  : 0/0
  2153 ;;		Unchanged: 0/0
  2154 ;; Data sizes:     COMRAM   BANK0   BANK1   BANK2   BANK3   BANK4   BANK5   BANK6   BANK7   BANK8   BANK9  BANK10  BANK1
      +1  BANK12  BANK13  BANK14
  2155 ;;      Params:         2       0       0       0       0       0       0       0       0       0       0       0       
      +0       0       0       0
  2156 ;;      Locals:         0       0       0       0       0       0       0       0       0       0       0       0       
      +0       0       0       0
  2157 ;;      Temps:          0       0       0       0       0       0       0       0       0       0       0       0       
      +0       0       0       0
  2158 ;;      Totals:         2       0       0       0       0       0       0       0       0       0       0       0       
      +0       0       0       0
  2159 ;;Total ram usage:        2 bytes
  2160 ;; Hardware stack levels used: 1
  2161 ;; Hardware stack levels required when called: 8
  2162 ;; This function calls:
  2163 ;;		Nothing
  2164 ;; This function is called by:
  2165 ;;		_EUSART1_Initialize
  2166 ;; This function uses a non-reentrant model
  2167 ;;
  2168                           
  2169                           	psect	text14
  2170  001C92                     __ptext14:
  2171                           	callstack 0
  2172  001C92                     _EUSART1_SetOverrunErrorHandler:
  2173                           	callstack 20
  2174  001C92                     
  2175                           ;mcc_generated_files/eusart1.c: 269:     EUSART1_OverrunErrorHandler = interruptHandler;
  2176  001C92  C010  F02F         	movff	EUSART1_SetOverrunErrorHandler@interruptHandler,_EUSART1_OverrunErrorHandler
  2177  001C96  C011  F030         	movff	EUSART1_SetOverrunErrorHandler@interruptHandler+1,_EUSART1_OverrunErrorHandler+1
  2178  001C9A  0012               	return		;funcret
  2179  001C9C                     __end_of_EUSART1_SetOverrunErrorHandler:
  2180                           	callstack 0
  2181                           
  2182 ;; *************** function _EUSART1_SetFramingErrorHandler *****************
  2183 ;; Defined at:
  2184 ;;		line 264 in file "mcc_generated_files/eusart1.c"
  2185 ;; Parameters:    Size  Location     Type
  2186 ;;  interruptHan    2   15[COMRAM] PTR FTN()void 
  2187 ;;		 -> EUSART1_DefaultFramingErrorHandler(1), 
  2188 ;; Auto vars:     Size  Location     Type
  2189 ;;		None
  2190 ;; Return value:  Size  Location     Type
  2191 ;;                  1    wreg      void 
  2192 ;; Registers used:
  2193 ;;		wreg, status,2, status,0
  2194 ;; Tracked objects:
  2195 ;;		On entry : 0/0
  2196 ;;		On exit  : 0/0
  2197 ;;		Unchanged: 0/0
  2198 ;; Data sizes:     COMRAM   BANK0   BANK1   BANK2   BANK3   BANK4   BANK5   BANK6   BANK7   BANK8   BANK9  BANK10  BANK1
      +1  BANK12  BANK13  BANK14
  2199 ;;      Params:         2       0       0       0       0       0       0       0       0       0       0       0       
      +0       0       0       0
  2200 ;;      Locals:         0       0       0       0       0       0       0       0       0       0       0       0       
      +0       0       0       0
  2201 ;;      Temps:          0       0       0       0       0       0       0       0       0       0       0       0       
      +0       0       0       0
  2202 ;;      Totals:         2       0       0       0       0       0       0       0       0       0       0       0       
      +0       0       0       0
  2203 ;;Total ram usage:        2 bytes
  2204 ;; Hardware stack levels used: 1
  2205 ;; Hardware stack levels required when called: 8
  2206 ;; This function calls:
  2207 ;;		Nothing
  2208 ;; This function is called by:
  2209 ;;		_EUSART1_Initialize
  2210 ;; This function uses a non-reentrant model
  2211 ;;
  2212                           
  2213                           	psect	text15
  2214  001C9C                     __ptext15:
  2215                           	callstack 0
  2216  001C9C                     _EUSART1_SetFramingErrorHandler:
  2217                           	callstack 20
  2218  001C9C                     
  2219                           ;mcc_generated_files/eusart1.c: 265:     EUSART1_FramingErrorHandler = interruptHandler;
  2220  001C9C  C010  F031         	movff	EUSART1_SetFramingErrorHandler@interruptHandler,_EUSART1_FramingErrorHandler
  2221  001CA0  C011  F032         	movff	EUSART1_SetFramingErrorHandler@interruptHandler+1,_EUSART1_FramingErrorHandler+1
  2222  001CA4  0012               	return		;funcret
  2223  001CA6                     __end_of_EUSART1_SetFramingErrorHandler:
  2224                           	callstack 0
  2225                           
  2226 ;; *************** function _EUSART1_SetErrorHandler *****************
  2227 ;; Defined at:
  2228 ;;		line 272 in file "mcc_generated_files/eusart1.c"
  2229 ;; Parameters:    Size  Location     Type
  2230 ;;  interruptHan    2   15[COMRAM] PTR FTN()void 
  2231 ;;		 -> EUSART1_DefaultErrorHandler(1), 
  2232 ;; Auto vars:     Size  Location     Type
  2233 ;;		None
  2234 ;; Return value:  Size  Location     Type
  2235 ;;                  1    wreg      void 
  2236 ;; Registers used:
  2237 ;;		wreg, status,2, status,0
  2238 ;; Tracked objects:
  2239 ;;		On entry : 0/0
  2240 ;;		On exit  : 0/0
  2241 ;;		Unchanged: 0/0
  2242 ;; Data sizes:     COMRAM   BANK0   BANK1   BANK2   BANK3   BANK4   BANK5   BANK6   BANK7   BANK8   BANK9  BANK10  BANK1
      +1  BANK12  BANK13  BANK14
  2243 ;;      Params:         2       0       0       0       0       0       0       0       0       0       0       0       
      +0       0       0       0
  2244 ;;      Locals:         0       0       0       0       0       0       0       0       0       0       0       0       
      +0       0       0       0
  2245 ;;      Temps:          0       0       0       0       0       0       0       0       0       0       0       0       
      +0       0       0       0
  2246 ;;      Totals:         2       0       0       0       0       0       0       0       0       0       0       0       
      +0       0       0       0
  2247 ;;Total ram usage:        2 bytes
  2248 ;; Hardware stack levels used: 1
  2249 ;; Hardware stack levels required when called: 8
  2250 ;; This function calls:
  2251 ;;		Nothing
  2252 ;; This function is called by:
  2253 ;;		_EUSART1_Initialize
  2254 ;; This function uses a non-reentrant model
  2255 ;;
  2256                           
  2257                           	psect	text16
  2258  001CA6                     __ptext16:
  2259                           	callstack 0
  2260  001CA6                     _EUSART1_SetErrorHandler:
  2261                           	callstack 20
  2262  001CA6                     
  2263                           ;mcc_generated_files/eusart1.c: 273:     EUSART1_ErrorHandler = interruptHandler;
  2264  001CA6  C010  F02D         	movff	EUSART1_SetErrorHandler@interruptHandler,_EUSART1_ErrorHandler
  2265  001CAA  C011  F02E         	movff	EUSART1_SetErrorHandler@interruptHandler+1,_EUSART1_ErrorHandler+1
  2266  001CAE  0012               	return		;funcret
  2267  001CB0                     __end_of_EUSART1_SetErrorHandler:
  2268                           	callstack 0
  2269                           
  2270 ;; *************** function _ADC_Initialize *****************
  2271 ;; Defined at:
  2272 ;;		line 103 in file "mcc_generated_files/adc.c"
  2273 ;; Parameters:    Size  Location     Type
  2274 ;;		None
  2275 ;; Auto vars:     Size  Location     Type
  2276 ;;		None
  2277 ;; Return value:  Size  Location     Type
  2278 ;;                  1    wreg      void 
  2279 ;; Registers used:
  2280 ;;		wreg, status,2, status,0, cstack
  2281 ;; Tracked objects:
  2282 ;;		On entry : 0/0
  2283 ;;		On exit  : 0/0
  2284 ;;		Unchanged: 0/0
  2285 ;; Data sizes:     COMRAM   BANK0   BANK1   BANK2   BANK3   BANK4   BANK5   BANK6   BANK7   BANK8   BANK9  BANK10  BANK1
      +1  BANK12  BANK13  BANK14
  2286 ;;      Params:         0       0       0       0       0       0       0       0       0       0       0       0       
      +0       0       0       0
  2287 ;;      Locals:         0       0       0       0       0       0       0       0       0       0       0       0       
      +0       0       0       0
  2288 ;;      Temps:          0       0       0       0       0       0       0       0       0       0       0       0       
      +0       0       0       0
  2289 ;;      Totals:         0       0       0       0       0       0       0       0       0       0       0       0       
      +0       0       0       0
  2290 ;;Total ram usage:        0 bytes
  2291 ;; Hardware stack levels used: 1
  2292 ;; Hardware stack levels required when called: 9
  2293 ;; This function calls:
  2294 ;;		_ADC_SetInterruptHandler
  2295 ;; This function is called by:
  2296 ;;		_SYSTEM_Initialize
  2297 ;; This function uses a non-reentrant model
  2298 ;;
  2299                           
  2300                           	psect	text17
  2301  001B62                     __ptext17:
  2302                           	callstack 0
  2303  001B62                     _ADC_Initialize:
  2304                           	callstack 20
  2305  001B62                     
  2306                           ;mcc_generated_files/adc.c: 108:     ADCON0 = 0x01;
  2307  001B62  0E01               	movlw	1
  2308  001B64  6EC2               	movwf	194,c	;volatile
  2309                           
  2310                           ;mcc_generated_files/adc.c: 111:     ADCON1 = 0x80;
  2311  001B66  0E80               	movlw	128
  2312  001B68  6EC1               	movwf	193,c	;volatile
  2313                           
  2314                           ;mcc_generated_files/adc.c: 114:     ADCON2 = 0x0E;
  2315  001B6A  0E0E               	movlw	14
  2316  001B6C  6EC0               	movwf	192,c	;volatile
  2317                           
  2318                           ;mcc_generated_files/adc.c: 117:     ADRESH = 0x00;
  2319  001B6E  0E00               	movlw	0
  2320  001B70  6EC4               	movwf	196,c	;volatile
  2321                           
  2322                           ;mcc_generated_files/adc.c: 120:     ADRESL = 0x00;
  2323  001B72  0E00               	movlw	0
  2324  001B74  6EC3               	movwf	195,c	;volatile
  2325  001B76                     
  2326                           ;mcc_generated_files/adc.c: 123:     PIE1bits.ADIE = 1;
  2327  001B76  8C9D               	bsf	157,6,c	;volatile
  2328  001B78                     
  2329                           ;mcc_generated_files/adc.c: 126:     ADC_SetInterruptHandler(ADC_DefaultInterruptHandler
      +                          );
  2330  001B78  0E88               	movlw	low _ADC_DefaultInterruptHandler
  2331  001B7A  6E10               	movwf	ADC_SetInterruptHandler@InterruptHandler^0,c
  2332  001B7C  0E16               	movlw	high _ADC_DefaultInterruptHandler
  2333  001B7E  6E11               	movwf	(ADC_SetInterruptHandler@InterruptHandler+1)^0,c
  2334  001B80  EC58  F00E         	call	_ADC_SetInterruptHandler	;wreg free
  2335  001B84  0012               	return		;funcret
  2336  001B86                     __end_of_ADC_Initialize:
  2337                           	callstack 0
  2338                           
  2339 ;; *************** function _ADC_SetInterruptHandler *****************
  2340 ;; Defined at:
  2341 ;;		line 191 in file "mcc_generated_files/adc.c"
  2342 ;; Parameters:    Size  Location     Type
  2343 ;;  InterruptHan    2   15[COMRAM] PTR FTN()void 
  2344 ;;		 -> ADC_DefaultInterruptHandler(1), 
  2345 ;; Auto vars:     Size  Location     Type
  2346 ;;		None
  2347 ;; Return value:  Size  Location     Type
  2348 ;;                  1    wreg      void 
  2349 ;; Registers used:
  2350 ;;		wreg, status,2, status,0
  2351 ;; Tracked objects:
  2352 ;;		On entry : 0/0
  2353 ;;		On exit  : 0/0
  2354 ;;		Unchanged: 0/0
  2355 ;; Data sizes:     COMRAM   BANK0   BANK1   BANK2   BANK3   BANK4   BANK5   BANK6   BANK7   BANK8   BANK9  BANK10  BANK1
      +1  BANK12  BANK13  BANK14
  2356 ;;      Params:         2       0       0       0       0       0       0       0       0       0       0       0       
      +0       0       0       0
  2357 ;;      Locals:         0       0       0       0       0       0       0       0       0       0       0       0       
      +0       0       0       0
  2358 ;;      Temps:          0       0       0       0       0       0       0       0       0       0       0       0       
      +0       0       0       0
  2359 ;;      Totals:         2       0       0       0       0       0       0       0       0       0       0       0       
      +0       0       0       0
  2360 ;;Total ram usage:        2 bytes
  2361 ;; Hardware stack levels used: 1
  2362 ;; Hardware stack levels required when called: 8
  2363 ;; This function calls:
  2364 ;;		Nothing
  2365 ;; This function is called by:
  2366 ;;		_ADC_Initialize
  2367 ;; This function uses a non-reentrant model
  2368 ;;
  2369                           
  2370                           	psect	text18
  2371  001CB0                     __ptext18:
  2372                           	callstack 0
  2373  001CB0                     _ADC_SetInterruptHandler:
  2374                           	callstack 20
  2375  001CB0                     
  2376                           ;mcc_generated_files/adc.c: 192:     ADC_InterruptHandler = InterruptHandler;
  2377  001CB0  C010  F027         	movff	ADC_SetInterruptHandler@InterruptHandler,_ADC_InterruptHandler
  2378  001CB4  C011  F028         	movff	ADC_SetInterruptHandler@InterruptHandler+1,_ADC_InterruptHandler+1
  2379  001CB8  0012               	return		;funcret
  2380  001CBA                     __end_of_ADC_SetInterruptHandler:
  2381                           	callstack 0
  2382                           
  2383 ;; *************** function _MAX517_Update *****************
  2384 ;; Defined at:
  2385 ;;		line 17 in file "max517.c"
  2386 ;; Parameters:    Size  Location     Type
  2387 ;;  data            1    wreg     const unsigned char 
  2388 ;; Auto vars:     Size  Location     Type
  2389 ;;  data            1   16[COMRAM] const unsigned char 
  2390 ;; Return value:  Size  Location     Type
  2391 ;;                  1    wreg      void 
  2392 ;; Registers used:
  2393 ;;		wreg, status,2, cstack
  2394 ;; Tracked objects:
  2395 ;;		On entry : 0/0
  2396 ;;		On exit  : 0/0
  2397 ;;		Unchanged: 0/0
  2398 ;; Data sizes:     COMRAM   BANK0   BANK1   BANK2   BANK3   BANK4   BANK5   BANK6   BANK7   BANK8   BANK9  BANK10  BANK1
      +1  BANK12  BANK13  BANK14
  2399 ;;      Params:         0       0       0       0       0       0       0       0       0       0       0       0       
      +0       0       0       0
  2400 ;;      Locals:         1       0       0       0       0       0       0       0       0       0       0       0       
      +0       0       0       0
  2401 ;;      Temps:          0       0       0       0       0       0       0       0       0       0       0       0       
      +0       0       0       0
  2402 ;;      Totals:         1       0       0       0       0       0       0       0       0       0       0       0       
      +0       0       0       0
  2403 ;;Total ram usage:        1 bytes
  2404 ;; Hardware stack levels used: 1
  2405 ;; Hardware stack levels required when called: 9
  2406 ;; This function calls:
  2407 ;;		_i2c_start
  2408 ;;		_i2c_stop
  2409 ;;		_i2c_write
  2410 ;; This function is called by:
  2411 ;;		_main
  2412 ;; This function uses a non-reentrant model
  2413 ;;
  2414                           
  2415                           	psect	text19
  2416  001BA8                     __ptext19:
  2417                           	callstack 0
  2418  001BA8                     _MAX517_Update:
  2419                           	callstack 21
  2420                           
  2421                           ;incstack = 0
  2422                           ;MAX517_Update@data stored from wreg
  2423  001BA8  6E11               	movwf	MAX517_Update@data^0,c
  2424  001BAA                     
  2425                           ;max517.c: 17: void MAX517_Update(const uint8_t data);max517.c: 18: {;max517.c: 19:     
      +                          i2c_start();
  2426  001BAA  EC10  F00E         	call	_i2c_start	;wreg free
  2427  001BAE                     
  2428                           ;max517.c: 21:     i2c_write(0x58);
  2429  001BAE  0E58               	movlw	88
  2430  001BB0  ECF0  F00D         	call	_i2c_write
  2431  001BB4                     
  2432                           ;max517.c: 23:     i2c_write(0x00);
  2433  001BB4  0E00               	movlw	0
  2434  001BB6  ECF0  F00D         	call	_i2c_write
  2435  001BBA                     
  2436                           ;max517.c: 25:     i2c_write(data);
  2437  001BBA  5011               	movf	MAX517_Update@data^0,w,c
  2438  001BBC  ECF0  F00D         	call	_i2c_write
  2439  001BC0                     
  2440                           ;max517.c: 27:     i2c_stop();
  2441  001BC0  EC06  F00E         	call	_i2c_stop	;wreg free
  2442  001BC4  0012               	return		;funcret
  2443  001BC6                     __end_of_MAX517_Update:
  2444                           	callstack 0
  2445                           
  2446 ;; *************** function _I2C_INTIALIZE *****************
  2447 ;; Defined at:
  2448 ;;		line 17 in file "I2C.c"
  2449 ;; Parameters:    Size  Location     Type
  2450 ;;  clock           3   29[COMRAM] unsigned um
  2451 ;; Auto vars:     Size  Location     Type
  2452 ;;		None
  2453 ;; Return value:  Size  Location     Type
  2454 ;;                  1    wreg      void 
  2455 ;; Registers used:
  2456 ;;		wreg, status,2, status,0, cstack
  2457 ;; Tracked objects:
  2458 ;;		On entry : 0/0
  2459 ;;		On exit  : 0/0
  2460 ;;		Unchanged: 0/0
  2461 ;; Data sizes:     COMRAM   BANK0   BANK1   BANK2   BANK3   BANK4   BANK5   BANK6   BANK7   BANK8   BANK9  BANK10  BANK1
      +1  BANK12  BANK13  BANK14
  2462 ;;      Params:         3       0       0       0       0       0       0       0       0       0       0       0       
      +0       0       0       0
  2463 ;;      Locals:         0       0       0       0       0       0       0       0       0       0       0       0       
      +0       0       0       0
  2464 ;;      Temps:          4       0       0       0       0       0       0       0       0       0       0       0       
      +0       0       0       0
  2465 ;;      Totals:         7       0       0       0       0       0       0       0       0       0       0       0       
      +0       0       0       0
  2466 ;;Total ram usage:        7 bytes
  2467 ;; Hardware stack levels used: 1
  2468 ;; Hardware stack levels required when called: 9
  2469 ;; This function calls:
  2470 ;;		___aldiv
  2471 ;; This function is called by:
  2472 ;;		_main
  2473 ;; This function uses a non-reentrant model
  2474 ;;
  2475                           
  2476                           	psect	text20
  2477  00191E                     __ptext20:
  2478                           	callstack 0
  2479  00191E                     _I2C_INTIALIZE:
  2480                           	callstack 21
  2481  00191E                     
  2482                           ;I2C.c: 17: void I2C_INTIALIZE(uint24_t clock);I2C.c: 18: {;I2C.c: 19:     TRISCbits.TRI
      +                          SC3 = 1;
  2483  00191E  8694               	bsf	148,3,c	;volatile
  2484                           
  2485                           ;I2C.c: 20:     TRISCbits.TRISC4 = 1;
  2486  001920  8894               	bsf	148,4,c	;volatile
  2487                           
  2488                           ;I2C.c: 22:     SSPSTATbits.SMP = 1;
  2489  001922  8EC7               	bsf	199,7,c	;volatile
  2490                           
  2491                           ;I2C.c: 23:     SSPSTATbits.CKE = 0;
  2492  001924  9CC7               	bcf	199,6,c	;volatile
  2493  001926                     
  2494                           ;I2C.c: 25:     SSPCON1 |= 0x28;
  2495  001926  0E28               	movlw	40
  2496  001928  12C6               	iorwf	198,f,c	;volatile
  2497  00192A                     
  2498                           ;I2C.c: 26:     SSPCON2 |= 0x00;
  2499  00192A  50C5               	movf	197,w,c	;volatile
  2500  00192C                     
  2501                           ;I2C.c: 27:     SSPADD = (uint8_t)(64000000 / (clock * 4)) - 1;
  2502  00192C  0E00               	movlw	0
  2503  00192E  6E10               	movwf	___aldiv@dividend^0,c
  2504  001930  0E90               	movlw	144
  2505  001932  6E11               	movwf	(___aldiv@dividend+1)^0,c
  2506  001934  0ED0               	movlw	208
  2507  001936  6E12               	movwf	(___aldiv@dividend+2)^0,c
  2508  001938  0E03               	movlw	3
  2509  00193A  6E13               	movwf	(___aldiv@dividend+3)^0,c
  2510  00193C  0E02               	movlw	2
  2511  00193E  6E21               	movwf	??_I2C_INTIALIZE^0,c
  2512  001940  C01E  F022         	movff	I2C_INTIALIZE@clock,??_I2C_INTIALIZE+1
  2513  001944  C01F  F023         	movff	I2C_INTIALIZE@clock+1,??_I2C_INTIALIZE+2
  2514  001948  C020  F024         	movff	I2C_INTIALIZE@clock+2,??_I2C_INTIALIZE+3
  2515  00194C  2821               	incf	??_I2C_INTIALIZE^0,w,c
  2516  00194E  EFAD  F00C         	goto	u1840
  2517  001952                     u1845:
  2518  001952  90D8               	bcf	status,0,c
  2519  001954  3622               	rlcf	(??_I2C_INTIALIZE+1)^0,f,c
  2520  001956  3623               	rlcf	(??_I2C_INTIALIZE+2)^0,f,c
  2521  001958  3624               	rlcf	(??_I2C_INTIALIZE+3)^0,f,c
  2522  00195A                     u1840:
  2523  00195A  2EE8               	decfsz	wreg,f,c
  2524  00195C  EFA9  F00C         	goto	u1845
  2525  001960  5022               	movf	(??_I2C_INTIALIZE+1)^0,w,c
  2526  001962  6E14               	movwf	___aldiv@divisor^0,c
  2527  001964  5023               	movf	(??_I2C_INTIALIZE+2)^0,w,c
  2528  001966  6E15               	movwf	(___aldiv@divisor+1)^0,c
  2529  001968  5024               	movf	(??_I2C_INTIALIZE+3)^0,w,c
  2530  00196A  6E16               	movwf	(___aldiv@divisor+2)^0,c
  2531  00196C  6A17               	clrf	(___aldiv@divisor+3)^0,c
  2532  00196E  EC78  F009         	call	___aldiv	;wreg free
  2533  001972  0410               	decf	?___aldiv^0,w,c
  2534  001974  6EC8               	movwf	200,c	;volatile
  2535  001976  0012               	return		;funcret
  2536  001978                     __end_of_I2C_INTIALIZE:
  2537                           	callstack 0
  2538                           
  2539 ;; *************** function ___aldiv *****************
  2540 ;; Defined at:
  2541 ;;		line 7 in file "C:\Program Files\Microchip\xc8\v2.32\pic\sources\c99\common\aldiv.c"
  2542 ;; Parameters:    Size  Location     Type
  2543 ;;  dividend        4   15[COMRAM] long 
  2544 ;;  divisor         4   19[COMRAM] long 
  2545 ;; Auto vars:     Size  Location     Type
  2546 ;;  quotient        4   25[COMRAM] long 
  2547 ;;  sign            1   24[COMRAM] unsigned char 
  2548 ;;  counter         1   23[COMRAM] unsigned char 
  2549 ;; Return value:  Size  Location     Type
  2550 ;;                  4   15[COMRAM] long 
  2551 ;; Registers used:
  2552 ;;		wreg, status,2, status,0
  2553 ;; Tracked objects:
  2554 ;;		On entry : 0/0
  2555 ;;		On exit  : 0/0
  2556 ;;		Unchanged: 0/0
  2557 ;; Data sizes:     COMRAM   BANK0   BANK1   BANK2   BANK3   BANK4   BANK5   BANK6   BANK7   BANK8   BANK9  BANK10  BANK1
      +1  BANK12  BANK13  BANK14
  2558 ;;      Params:         8       0       0       0       0       0       0       0       0       0       0       0       
      +0       0       0       0
  2559 ;;      Locals:         6       0       0       0       0       0       0       0       0       0       0       0       
      +0       0       0       0
  2560 ;;      Temps:          0       0       0       0       0       0       0       0       0       0       0       0       
      +0       0       0       0
  2561 ;;      Totals:        14       0       0       0       0       0       0       0       0       0       0       0       
      +0       0       0       0
  2562 ;;Total ram usage:       14 bytes
  2563 ;; Hardware stack levels used: 1
  2564 ;; Hardware stack levels required when called: 8
  2565 ;; This function calls:
  2566 ;;		Nothing
  2567 ;; This function is called by:
  2568 ;;		_I2C_INTIALIZE
  2569 ;; This function uses a non-reentrant model
  2570 ;;
  2571                           
  2572                           	psect	text21
  2573  0012F0                     __ptext21:
  2574                           	callstack 0
  2575  0012F0                     ___aldiv:
  2576                           	callstack 21
  2577  0012F0  0E00               	movlw	0
  2578  0012F2  6E19               	movwf	___aldiv@sign^0,c
  2579  0012F4  BE17               	btfsc	(___aldiv@divisor+3)^0,7,c
  2580  0012F6  EF81  F009         	goto	u1630
  2581  0012FA  EF7F  F009         	goto	u1631
  2582  0012FE                     u1631:
  2583  0012FE  EF8B  F009         	goto	l3420
  2584  001302                     u1630:
  2585  001302  1E17               	comf	(___aldiv@divisor+3)^0,f,c
  2586  001304  1E16               	comf	(___aldiv@divisor+2)^0,f,c
  2587  001306  1E15               	comf	(___aldiv@divisor+1)^0,f,c
  2588  001308  6C14               	negf	___aldiv@divisor^0,c
  2589  00130A  0E00               	movlw	0
  2590  00130C  2215               	addwfc	(___aldiv@divisor+1)^0,f,c
  2591  00130E  2216               	addwfc	(___aldiv@divisor+2)^0,f,c
  2592  001310  2217               	addwfc	(___aldiv@divisor+3)^0,f,c
  2593  001312  0E01               	movlw	1
  2594  001314  6E19               	movwf	___aldiv@sign^0,c
  2595  001316                     l3420:
  2596  001316  BE13               	btfsc	(___aldiv@dividend+3)^0,7,c
  2597  001318  EF92  F009         	goto	u1640
  2598  00131C  EF90  F009         	goto	u1641
  2599  001320                     u1641:
  2600  001320  EF9C  F009         	goto	l3426
  2601  001324                     u1640:
  2602  001324  1E13               	comf	(___aldiv@dividend+3)^0,f,c
  2603  001326  1E12               	comf	(___aldiv@dividend+2)^0,f,c
  2604  001328  1E11               	comf	(___aldiv@dividend+1)^0,f,c
  2605  00132A  6C10               	negf	___aldiv@dividend^0,c
  2606  00132C  0E00               	movlw	0
  2607  00132E  2211               	addwfc	(___aldiv@dividend+1)^0,f,c
  2608  001330  2212               	addwfc	(___aldiv@dividend+2)^0,f,c
  2609  001332  2213               	addwfc	(___aldiv@dividend+3)^0,f,c
  2610  001334  0E01               	movlw	1
  2611  001336  1A19               	xorwf	___aldiv@sign^0,f,c
  2612  001338                     l3426:
  2613  001338  0E00               	movlw	0
  2614  00133A  6E1A               	movwf	___aldiv@quotient^0,c
  2615  00133C  0E00               	movlw	0
  2616  00133E  6E1B               	movwf	(___aldiv@quotient+1)^0,c
  2617  001340  0E00               	movlw	0
  2618  001342  6E1C               	movwf	(___aldiv@quotient+2)^0,c
  2619  001344  0E00               	movlw	0
  2620  001346  6E1D               	movwf	(___aldiv@quotient+3)^0,c
  2621  001348  5014               	movf	___aldiv@divisor^0,w,c
  2622  00134A  1015               	iorwf	(___aldiv@divisor+1)^0,w,c
  2623  00134C  1016               	iorwf	(___aldiv@divisor+2)^0,w,c
  2624  00134E  1017               	iorwf	(___aldiv@divisor+3)^0,w,c
  2625  001350  B4D8               	btfsc	status,2,c
  2626  001352  EFAD  F009         	goto	u1651
  2627  001356  EFAF  F009         	goto	u1650
  2628  00135A                     u1651:
  2629  00135A  EFE5  F009         	goto	l3448
  2630  00135E                     u1650:
  2631  00135E  0E01               	movlw	1
  2632  001360  6E18               	movwf	___aldiv@counter^0,c
  2633  001362  EFB9  F009         	goto	l3434
  2634  001366                     l3432:
  2635  001366  90D8               	bcf	status,0,c
  2636  001368  3614               	rlcf	___aldiv@divisor^0,f,c
  2637  00136A  3615               	rlcf	(___aldiv@divisor+1)^0,f,c
  2638  00136C  3616               	rlcf	(___aldiv@divisor+2)^0,f,c
  2639  00136E  3617               	rlcf	(___aldiv@divisor+3)^0,f,c
  2640  001370  2A18               	incf	___aldiv@counter^0,f,c
  2641  001372                     l3434:
  2642  001372  AE17               	btfss	(___aldiv@divisor+3)^0,7,c
  2643  001374  EFBE  F009         	goto	u1661
  2644  001378  EFC0  F009         	goto	u1660
  2645  00137C                     u1661:
  2646  00137C  EFB3  F009         	goto	l3432
  2647  001380                     u1660:
  2648  001380                     l3436:
  2649  001380  90D8               	bcf	status,0,c
  2650  001382  361A               	rlcf	___aldiv@quotient^0,f,c
  2651  001384  361B               	rlcf	(___aldiv@quotient+1)^0,f,c
  2652  001386  361C               	rlcf	(___aldiv@quotient+2)^0,f,c
  2653  001388  361D               	rlcf	(___aldiv@quotient+3)^0,f,c
  2654  00138A  5014               	movf	___aldiv@divisor^0,w,c
  2655  00138C  5C10               	subwf	___aldiv@dividend^0,w,c
  2656  00138E  5015               	movf	(___aldiv@divisor+1)^0,w,c
  2657  001390  5811               	subwfb	(___aldiv@dividend+1)^0,w,c
  2658  001392  5016               	movf	(___aldiv@divisor+2)^0,w,c
  2659  001394  5812               	subwfb	(___aldiv@dividend+2)^0,w,c
  2660  001396  5017               	movf	(___aldiv@divisor+3)^0,w,c
  2661  001398  5813               	subwfb	(___aldiv@dividend+3)^0,w,c
  2662  00139A  A0D8               	btfss	status,0,c
  2663  00139C  EFD2  F009         	goto	u1671
  2664  0013A0  EFD4  F009         	goto	u1670
  2665  0013A4                     u1671:
  2666  0013A4  EFDD  F009         	goto	l3444
  2667  0013A8                     u1670:
  2668  0013A8  5014               	movf	___aldiv@divisor^0,w,c
  2669  0013AA  5E10               	subwf	___aldiv@dividend^0,f,c
  2670  0013AC  5015               	movf	(___aldiv@divisor+1)^0,w,c
  2671  0013AE  5A11               	subwfb	(___aldiv@dividend+1)^0,f,c
  2672  0013B0  5016               	movf	(___aldiv@divisor+2)^0,w,c
  2673  0013B2  5A12               	subwfb	(___aldiv@dividend+2)^0,f,c
  2674  0013B4  5017               	movf	(___aldiv@divisor+3)^0,w,c
  2675  0013B6  5A13               	subwfb	(___aldiv@dividend+3)^0,f,c
  2676  0013B8  801A               	bsf	___aldiv@quotient^0,0,c
  2677  0013BA                     l3444:
  2678  0013BA  90D8               	bcf	status,0,c
  2679  0013BC  3217               	rrcf	(___aldiv@divisor+3)^0,f,c
  2680  0013BE  3216               	rrcf	(___aldiv@divisor+2)^0,f,c
  2681  0013C0  3215               	rrcf	(___aldiv@divisor+1)^0,f,c
  2682  0013C2  3214               	rrcf	___aldiv@divisor^0,f,c
  2683  0013C4  2E18               	decfsz	___aldiv@counter^0,f,c
  2684  0013C6  EFC0  F009         	goto	l3436
  2685  0013CA                     l3448:
  2686  0013CA  5019               	movf	___aldiv@sign^0,w,c
  2687  0013CC  B4D8               	btfsc	status,2,c
  2688  0013CE  EFEB  F009         	goto	u1681
  2689  0013D2  EFED  F009         	goto	u1680
  2690  0013D6                     u1681:
  2691  0013D6  EFF5  F009         	goto	l3452
  2692  0013DA                     u1680:
  2693  0013DA  1E1D               	comf	(___aldiv@quotient+3)^0,f,c
  2694  0013DC  1E1C               	comf	(___aldiv@quotient+2)^0,f,c
  2695  0013DE  1E1B               	comf	(___aldiv@quotient+1)^0,f,c
  2696  0013E0  6C1A               	negf	___aldiv@quotient^0,c
  2697  0013E2  0E00               	movlw	0
  2698  0013E4  221B               	addwfc	(___aldiv@quotient+1)^0,f,c
  2699  0013E6  221C               	addwfc	(___aldiv@quotient+2)^0,f,c
  2700  0013E8  221D               	addwfc	(___aldiv@quotient+3)^0,f,c
  2701  0013EA                     l3452:
  2702  0013EA  C01A  F010         	movff	___aldiv@quotient,?___aldiv
  2703  0013EE  C01B  F011         	movff	___aldiv@quotient+1,?___aldiv+1
  2704  0013F2  C01C  F012         	movff	___aldiv@quotient+2,?___aldiv+2
  2705  0013F6  C01D  F013         	movff	___aldiv@quotient+3,?___aldiv+3
  2706  0013FA  0012               	return		;funcret
  2707  0013FC                     __end_of___aldiv:
  2708                           	callstack 0
  2709                           
  2710 ;; *************** function _EEPROM_WritePg *****************
  2711 ;; Defined at:
  2712 ;;		line 92 in file "EEPROM.c"
  2713 ;; Parameters:    Size  Location     Type
  2714 ;;  page            2   16[COMRAM] const unsigned short 
  2715 ;;  ptr             2   18[COMRAM] PTR unsigned char 
  2716 ;;		 -> readBufTwo(128), readBufOne(128), 
  2717 ;; Auto vars:     Size  Location     Type
  2718 ;;  cnt             1   24[COMRAM] unsigned char 
  2719 ;;  product         4   25[COMRAM] unsigned long 
  2720 ;; Return value:  Size  Location     Type
  2721 ;;                  1    wreg      void 
  2722 ;; Registers used:
  2723 ;;		wreg, fsr2l, fsr2h, status,2, status,0, cstack
  2724 ;; Tracked objects:
  2725 ;;		On entry : 0/0
  2726 ;;		On exit  : 0/0
  2727 ;;		Unchanged: 0/0
  2728 ;; Data sizes:     COMRAM   BANK0   BANK1   BANK2   BANK3   BANK4   BANK5   BANK6   BANK7   BANK8   BANK9  BANK10  BANK1
      +1  BANK12  BANK13  BANK14
  2729 ;;      Params:         4       0       0       0       0       0       0       0       0       0       0       0       
      +0       0       0       0
  2730 ;;      Locals:         5       0       0       0       0       0       0       0       0       0       0       0       
      +0       0       0       0
  2731 ;;      Temps:          4       0       0       0       0       0       0       0       0       0       0       0       
      +0       0       0       0
  2732 ;;      Totals:        13       0       0       0       0       0       0       0       0       0       0       0       
      +0       0       0       0
  2733 ;;Total ram usage:       13 bytes
  2734 ;; Hardware stack levels used: 1
  2735 ;; Hardware stack levels required when called: 9
  2736 ;; This function calls:
  2737 ;;		_i2c_start
  2738 ;;		_i2c_stop
  2739 ;;		_i2c_write
  2740 ;; This function is called by:
  2741 ;;		_main
  2742 ;; This function uses a non-reentrant model
  2743 ;;
  2744                           
  2745                           	psect	text22
  2746  0014E4                     __ptext22:
  2747                           	callstack 0
  2748  0014E4                     _EEPROM_WritePg:
  2749                           	callstack 21
  2750  0014E4                     
  2751                           ;EEPROM.c: 92: void EEPROM_WritePg(const uint16_t page, uint8_t * ptr);EEPROM.c: 93: {;E
      +                          EPROM.c: 95:     if(page < 1024)
  2752  0014E4  0E04               	movlw	4
  2753  0014E6  5C12               	subwf	(EEPROM_WritePg@page+1)^0,w,c
  2754  0014E8  B0D8               	btfsc	status,0,c
  2755  0014EA  EF79  F00A         	goto	u1901
  2756  0014EE  EF7B  F00A         	goto	u1900
  2757  0014F2                     u1901:
  2758  0014F2  EFE3  F00A         	goto	l1049
  2759  0014F6                     u1900:
  2760  0014F6                     
  2761                           ;EEPROM.c: 96:     {;EEPROM.c: 97:         uint32_t product;;EEPROM.c: 99:         produ
      +                          ct = page * 128;
  2762  0014F6  C011  F015         	movff	EEPROM_WritePg@page,??_EEPROM_WritePg
  2763  0014FA  C012  F016         	movff	EEPROM_WritePg@page+1,??_EEPROM_WritePg+1
  2764  0014FE  0E07               	movlw	7
  2765  001500                     u1915:
  2766  001500  90D8               	bcf	status,0,c
  2767  001502  3615               	rlcf	??_EEPROM_WritePg^0,f,c
  2768  001504  3616               	rlcf	(??_EEPROM_WritePg+1)^0,f,c
  2769  001506  2EE8               	decfsz	wreg,f,c
  2770  001508  EF80  F00A         	goto	u1915
  2771  00150C  C015  F01A         	movff	??_EEPROM_WritePg,EEPROM_WritePg@product
  2772  001510  C016  F01B         	movff	??_EEPROM_WritePg+1,EEPROM_WritePg@product+1
  2773  001514  6A1C               	clrf	(EEPROM_WritePg@product+2)^0,c
  2774  001516  6A1D               	clrf	(EEPROM_WritePg@product+3)^0,c
  2775  001518                     
  2776                           ;EEPROM.c: 101:         i2c_start();
  2777  001518  EC10  F00E         	call	_i2c_start	;wreg free
  2778                           
  2779                           ;EEPROM.c: 103:         i2c_write(0b10100000 | ((product >> 13 ) & 0b00001000));
  2780  00151C  C01A  F015         	movff	EEPROM_WritePg@product,??_EEPROM_WritePg
  2781  001520  C01B  F016         	movff	EEPROM_WritePg@product+1,??_EEPROM_WritePg+1
  2782  001524  C01C  F017         	movff	EEPROM_WritePg@product+2,??_EEPROM_WritePg+2
  2783  001528  C01D  F018         	movff	EEPROM_WritePg@product+3,??_EEPROM_WritePg+3
  2784  00152C  0E0E               	movlw	14
  2785  00152E  EF9E  F00A         	goto	u1920
  2786  001532                     u1925:
  2787  001532  90D8               	bcf	status,0,c
  2788  001534  3218               	rrcf	(??_EEPROM_WritePg+3)^0,f,c
  2789  001536  3217               	rrcf	(??_EEPROM_WritePg+2)^0,f,c
  2790  001538  3216               	rrcf	(??_EEPROM_WritePg+1)^0,f,c
  2791  00153A  3215               	rrcf	??_EEPROM_WritePg^0,f,c
  2792  00153C                     u1920:
  2793  00153C  2EE8               	decfsz	wreg,f,c
  2794  00153E  EF99  F00A         	goto	u1925
  2795  001542  5015               	movf	??_EEPROM_WritePg^0,w,c
  2796  001544  0B08               	andlw	8
  2797  001546  09A0               	iorlw	160
  2798  001548  ECF0  F00D         	call	_i2c_write
  2799  00154C                     
  2800                           ;EEPROM.c: 105:         i2c_write((uint8_t)(product >> 8) & 0xFF);
  2801  00154C  501B               	movf	(EEPROM_WritePg@product+1)^0,w,c
  2802  00154E  ECF0  F00D         	call	_i2c_write
  2803  001552                     
  2804                           ;EEPROM.c: 107:         i2c_write((uint8_t)(product) & 0xFF);
  2805  001552  501A               	movf	EEPROM_WritePg@product^0,w,c
  2806  001554  ECF0  F00D         	call	_i2c_write
  2807  001558                     
  2808                           ;EEPROM.c: 109:         for(uint8_t cnt = 0; cnt < 128; cnt++)
  2809  001558  0E00               	movlw	0
  2810  00155A  6E19               	movwf	EEPROM_WritePg@cnt^0,c
  2811  00155C                     l3670:
  2812                           
  2813                           ;EEPROM.c: 110:         {;EEPROM.c: 111:             i2c_write(*(ptr + cnt));
  2814  00155C  5019               	movf	EEPROM_WritePg@cnt^0,w,c
  2815  00155E  2413               	addwf	EEPROM_WritePg@ptr^0,w,c
  2816  001560  6ED9               	movwf	fsr2l,c
  2817  001562  0E00               	movlw	0
  2818  001564  2014               	addwfc	(EEPROM_WritePg@ptr+1)^0,w,c
  2819  001566  6EDA               	movwf	fsr2h,c
  2820  001568  50DF               	movf	indf2,w,c
  2821  00156A  ECF0  F00D         	call	_i2c_write
  2822  00156E                     
  2823                           ;EEPROM.c: 112:         }
  2824  00156E  2A19               	incf	EEPROM_WritePg@cnt^0,f,c
  2825  001570  0E7F               	movlw	127
  2826  001572  6419               	cpfsgt	EEPROM_WritePg@cnt^0,c
  2827  001574  EFBE  F00A         	goto	u1931
  2828  001578  EFC0  F00A         	goto	u1930
  2829  00157C                     u1931:
  2830  00157C  EFAE  F00A         	goto	l3670
  2831  001580                     u1930:
  2832  001580                     
  2833                           ;EEPROM.c: 114:         i2c_stop();
  2834  001580  EC06  F00E         	call	_i2c_stop	;wreg free
  2835  001584                     l1044:
  2836                           
  2837                           ;EEPROM.c: 117:         {;EEPROM.c: 118:             i2c_start();
  2838  001584  EC10  F00E         	call	_i2c_start	;wreg free
  2839  001588                     
  2840                           ;EEPROM.c: 119:             i2c_write(0b10100000 | ((product >> 13) & 0b00001000));
  2841  001588  C01A  F015         	movff	EEPROM_WritePg@product,??_EEPROM_WritePg
  2842  00158C  C01B  F016         	movff	EEPROM_WritePg@product+1,??_EEPROM_WritePg+1
  2843  001590  C01C  F017         	movff	EEPROM_WritePg@product+2,??_EEPROM_WritePg+2
  2844  001594  C01D  F018         	movff	EEPROM_WritePg@product+3,??_EEPROM_WritePg+3
  2845  001598  0E0E               	movlw	14
  2846  00159A  EFD4  F00A         	goto	u1940
  2847  00159E                     u1945:
  2848  00159E  90D8               	bcf	status,0,c
  2849  0015A0  3218               	rrcf	(??_EEPROM_WritePg+3)^0,f,c
  2850  0015A2  3217               	rrcf	(??_EEPROM_WritePg+2)^0,f,c
  2851  0015A4  3216               	rrcf	(??_EEPROM_WritePg+1)^0,f,c
  2852  0015A6  3215               	rrcf	??_EEPROM_WritePg^0,f,c
  2853  0015A8                     u1940:
  2854  0015A8  2EE8               	decfsz	wreg,f,c
  2855  0015AA  EFCF  F00A         	goto	u1945
  2856  0015AE  5015               	movf	??_EEPROM_WritePg^0,w,c
  2857  0015B0  0B08               	andlw	8
  2858  0015B2  09A0               	iorlw	160
  2859  0015B4  ECF0  F00D         	call	_i2c_write
  2860  0015B8                     
  2861                           ;EEPROM.c: 120:             if (!SSPCON2bits.ACKSTAT)
  2862  0015B8  BCC5               	btfsc	197,6,c	;volatile
  2863  0015BA  EFE1  F00A         	goto	u1951
  2864  0015BE  EFE3  F00A         	goto	u1950
  2865  0015C2                     u1951:
  2866  0015C2  EFC2  F00A         	goto	l1044
  2867  0015C6                     u1950:
  2868  0015C6                     l1049:
  2869  0015C6  0012               	return		;funcret
  2870  0015C8                     __end_of_EEPROM_WritePg:
  2871                           	callstack 0
  2872                           
  2873 ;; *************** function _i2c_stop *****************
  2874 ;; Defined at:
  2875 ;;		line 36 in file "I2C.c"
  2876 ;; Parameters:    Size  Location     Type
  2877 ;;		None
  2878 ;; Auto vars:     Size  Location     Type
  2879 ;;		None
  2880 ;; Return value:  Size  Location     Type
  2881 ;;                  1    wreg      void 
  2882 ;; Registers used:
  2883 ;;		None
  2884 ;; Tracked objects:
  2885 ;;		On entry : 0/0
  2886 ;;		On exit  : 0/0
  2887 ;;		Unchanged: 0/0
  2888 ;; Data sizes:     COMRAM   BANK0   BANK1   BANK2   BANK3   BANK4   BANK5   BANK6   BANK7   BANK8   BANK9  BANK10  BANK1
      +1  BANK12  BANK13  BANK14
  2889 ;;      Params:         0       0       0       0       0       0       0       0       0       0       0       0       
      +0       0       0       0
  2890 ;;      Locals:         0       0       0       0       0       0       0       0       0       0       0       0       
      +0       0       0       0
  2891 ;;      Temps:          0       0       0       0       0       0       0       0       0       0       0       0       
      +0       0       0       0
  2892 ;;      Totals:         0       0       0       0       0       0       0       0       0       0       0       0       
      +0       0       0       0
  2893 ;;Total ram usage:        0 bytes
  2894 ;; Hardware stack levels used: 1
  2895 ;; Hardware stack levels required when called: 8
  2896 ;; This function calls:
  2897 ;;		Nothing
  2898 ;; This function is called by:
  2899 ;;		_EEPROM_WritePg
  2900 ;;		_MAX517_Update
  2901 ;;		_EEPROM_write
  2902 ;;		_EEPROM_Read
  2903 ;;		_i2c_scanBus
  2904 ;;		_i2c_clrBuf
  2905 ;; This function uses a non-reentrant model
  2906 ;;
  2907                           
  2908                           	psect	text23
  2909  001C0C                     __ptext23:
  2910                           	callstack 0
  2911  001C0C                     _i2c_stop:
  2912                           	callstack 21
  2913  001C0C                     
  2914                           ;I2C.c: 37:     SSPCON2bits.PEN = 1;
  2915  001C0C  84C5               	bsf	197,2,c	;volatile
  2916  001C0E                     l1088:
  2917  001C0E  B4C5               	btfsc	197,2,c	;volatile
  2918  001C10  EF0C  F00E         	goto	u1591
  2919  001C14  EF0E  F00E         	goto	u1590
  2920  001C18                     u1591:
  2921  001C18  EF07  F00E         	goto	l1088
  2922  001C1C                     u1590:
  2923  001C1C                     
  2924                           ;I2C.c: 39:     PIR1bits.SSPIF = 0;
  2925  001C1C  969E               	bcf	158,3,c	;volatile
  2926  001C1E  0012               	return		;funcret
  2927  001C20                     __end_of_i2c_stop:
  2928                           	callstack 0
  2929                           
  2930 ;; *************** function _EEPROM_ReadPg *****************
  2931 ;; Defined at:
  2932 ;;		line 132 in file "EEPROM.c"
  2933 ;; Parameters:    Size  Location     Type
  2934 ;;  page            2   16[COMRAM] unsigned short 
  2935 ;;  ptr             2   18[COMRAM] PTR unsigned char 
  2936 ;;		 -> readBufTwo(128), readBufOne(128), 
  2937 ;; Auto vars:     Size  Location     Type
  2938 ;;  product         4   24[COMRAM] unsigned long 
  2939 ;;  cnt             1   28[COMRAM] unsigned char 
  2940 ;; Return value:  Size  Location     Type
  2941 ;;                  2   16[COMRAM] PTR unsigned char 
  2942 ;; Registers used:
  2943 ;;		wreg, fsr2l, fsr2h, status,2, status,0, cstack
  2944 ;; Tracked objects:
  2945 ;;		On entry : 0/0
  2946 ;;		On exit  : 0/0
  2947 ;;		Unchanged: 0/0
  2948 ;; Data sizes:     COMRAM   BANK0   BANK1   BANK2   BANK3   BANK4   BANK5   BANK6   BANK7   BANK8   BANK9  BANK10  BANK1
      +1  BANK12  BANK13  BANK14
  2949 ;;      Params:         4       0       0       0       0       0       0       0       0       0       0       0       
      +0       0       0       0
  2950 ;;      Locals:         5       0       0       0       0       0       0       0       0       0       0       0       
      +0       0       0       0
  2951 ;;      Temps:          4       0       0       0       0       0       0       0       0       0       0       0       
      +0       0       0       0
  2952 ;;      Totals:        13       0       0       0       0       0       0       0       0       0       0       0       
      +0       0       0       0
  2953 ;;Total ram usage:       13 bytes
  2954 ;; Hardware stack levels used: 1
  2955 ;; Hardware stack levels required when called: 9
  2956 ;; This function calls:
  2957 ;;		_i2c_read
  2958 ;;		_i2c_start
  2959 ;;		_i2c_write
  2960 ;; This function is called by:
  2961 ;;		_main
  2962 ;; This function uses a non-reentrant model
  2963 ;;
  2964                           
  2965                           	psect	text24
  2966  0013FC                     __ptext24:
  2967                           	callstack 0
  2968  0013FC                     _EEPROM_ReadPg:
  2969                           	callstack 21
  2970  0013FC                     
  2971                           ;EEPROM.c: 132: uint8_t * EEPROM_ReadPg(uint16_t page, uint8_t * ptr);EEPROM.c: 133: {;E
      +                          EPROM.c: 134:     if (page < 1024)
  2972  0013FC  0E04               	movlw	4
  2973  0013FE  5C12               	subwf	(EEPROM_ReadPg@page+1)^0,w,c
  2974  001400  B0D8               	btfsc	status,0,c
  2975  001402  EF05  F00A         	goto	u1851
  2976  001406  EF07  F00A         	goto	u1850
  2977  00140A                     u1851:
  2978  00140A  EF71  F00A         	goto	l1055
  2979  00140E                     u1850:
  2980  00140E                     
  2981                           ;EEPROM.c: 135:     {;EEPROM.c: 137:         uint32_t product = page * 128;
  2982  00140E  C011  F015         	movff	EEPROM_ReadPg@page,??_EEPROM_ReadPg
  2983  001412  C012  F016         	movff	EEPROM_ReadPg@page+1,??_EEPROM_ReadPg+1
  2984  001416  0E07               	movlw	7
  2985  001418                     u1865:
  2986  001418  90D8               	bcf	status,0,c
  2987  00141A  3615               	rlcf	??_EEPROM_ReadPg^0,f,c
  2988  00141C  3616               	rlcf	(??_EEPROM_ReadPg+1)^0,f,c
  2989  00141E  2EE8               	decfsz	wreg,f,c
  2990  001420  EF0C  F00A         	goto	u1865
  2991  001424  C015  F019         	movff	??_EEPROM_ReadPg,EEPROM_ReadPg@product
  2992  001428  C016  F01A         	movff	??_EEPROM_ReadPg+1,EEPROM_ReadPg@product+1
  2993  00142C  6A1B               	clrf	(EEPROM_ReadPg@product+2)^0,c
  2994  00142E  6A1C               	clrf	(EEPROM_ReadPg@product+3)^0,c
  2995  001430                     
  2996                           ;EEPROM.c: 141:         i2c_start();
  2997  001430  EC10  F00E         	call	_i2c_start	;wreg free
  2998                           
  2999                           ;EEPROM.c: 143:         i2c_write(0b10100000 | ((product >> 13 ) & 0b00001000));
  3000  001434  C019  F015         	movff	EEPROM_ReadPg@product,??_EEPROM_ReadPg
  3001  001438  C01A  F016         	movff	EEPROM_ReadPg@product+1,??_EEPROM_ReadPg+1
  3002  00143C  C01B  F017         	movff	EEPROM_ReadPg@product+2,??_EEPROM_ReadPg+2
  3003  001440  C01C  F018         	movff	EEPROM_ReadPg@product+3,??_EEPROM_ReadPg+3
  3004  001444  0E0E               	movlw	14
  3005  001446  EF2A  F00A         	goto	u1870
  3006  00144A                     u1875:
  3007  00144A  90D8               	bcf	status,0,c
  3008  00144C  3218               	rrcf	(??_EEPROM_ReadPg+3)^0,f,c
  3009  00144E  3217               	rrcf	(??_EEPROM_ReadPg+2)^0,f,c
  3010  001450  3216               	rrcf	(??_EEPROM_ReadPg+1)^0,f,c
  3011  001452  3215               	rrcf	??_EEPROM_ReadPg^0,f,c
  3012  001454                     u1870:
  3013  001454  2EE8               	decfsz	wreg,f,c
  3014  001456  EF25  F00A         	goto	u1875
  3015  00145A  5015               	movf	??_EEPROM_ReadPg^0,w,c
  3016  00145C  0B08               	andlw	8
  3017  00145E  09A0               	iorlw	160
  3018  001460  ECF0  F00D         	call	_i2c_write
  3019  001464                     
  3020                           ;EEPROM.c: 145:         i2c_write((uint8_t)(product >> 8) & 0xFF);
  3021  001464  501A               	movf	(EEPROM_ReadPg@product+1)^0,w,c
  3022  001466  ECF0  F00D         	call	_i2c_write
  3023  00146A                     
  3024                           ;EEPROM.c: 147:         i2c_write((uint8_t)(product) & 0xFF);
  3025  00146A  5019               	movf	EEPROM_ReadPg@product^0,w,c
  3026  00146C  ECF0  F00D         	call	_i2c_write
  3027  001470                     
  3028                           ;EEPROM.c: 149:         i2c_start();
  3029  001470  EC10  F00E         	call	_i2c_start	;wreg free
  3030  001474                     
  3031                           ;EEPROM.c: 151:         i2c_write(0b10100001 | ((product >> 13 ) & 0b00001000));
  3032  001474  C019  F015         	movff	EEPROM_ReadPg@product,??_EEPROM_ReadPg
  3033  001478  C01A  F016         	movff	EEPROM_ReadPg@product+1,??_EEPROM_ReadPg+1
  3034  00147C  C01B  F017         	movff	EEPROM_ReadPg@product+2,??_EEPROM_ReadPg+2
  3035  001480  C01C  F018         	movff	EEPROM_ReadPg@product+3,??_EEPROM_ReadPg+3
  3036  001484  0E0E               	movlw	14
  3037  001486  EF4A  F00A         	goto	u1880
  3038  00148A                     u1885:
  3039  00148A  90D8               	bcf	status,0,c
  3040  00148C  3218               	rrcf	(??_EEPROM_ReadPg+3)^0,f,c
  3041  00148E  3217               	rrcf	(??_EEPROM_ReadPg+2)^0,f,c
  3042  001490  3216               	rrcf	(??_EEPROM_ReadPg+1)^0,f,c
  3043  001492  3215               	rrcf	??_EEPROM_ReadPg^0,f,c
  3044  001494                     u1880:
  3045  001494  2EE8               	decfsz	wreg,f,c
  3046  001496  EF45  F00A         	goto	u1885
  3047  00149A  5015               	movf	??_EEPROM_ReadPg^0,w,c
  3048  00149C  0B08               	andlw	8
  3049  00149E  09A1               	iorlw	161
  3050  0014A0  ECF0  F00D         	call	_i2c_write
  3051  0014A4                     
  3052                           ;EEPROM.c: 153:         uint8_t cnt;;EEPROM.c: 155:         for(cnt = 0; cnt < 127; cnt+
      +                          +)
  3053  0014A4  0E00               	movlw	0
  3054  0014A6  6E1D               	movwf	EEPROM_ReadPg@cnt^0,c
  3055  0014A8                     l3642:
  3056                           
  3057                           ;EEPROM.c: 156:         {;EEPROM.c: 157:             *(ptr + cnt) = i2c_read(0);
  3058  0014A8  501D               	movf	EEPROM_ReadPg@cnt^0,w,c
  3059  0014AA  2413               	addwf	EEPROM_ReadPg@ptr^0,w,c
  3060  0014AC  6ED9               	movwf	fsr2l,c
  3061  0014AE  0E00               	movlw	0
  3062  0014B0  2014               	addwfc	(EEPROM_ReadPg@ptr+1)^0,w,c
  3063  0014B2  6EDA               	movwf	fsr2h,c
  3064  0014B4  0E00               	movlw	0
  3065  0014B6  EC30  F00D         	call	_i2c_read
  3066  0014BA  6EDF               	movwf	indf2,c
  3067  0014BC                     
  3068                           ;EEPROM.c: 158:         }
  3069  0014BC  2A1D               	incf	EEPROM_ReadPg@cnt^0,f,c
  3070  0014BE  0E7E               	movlw	126
  3071  0014C0  641D               	cpfsgt	EEPROM_ReadPg@cnt^0,c
  3072  0014C2  EF65  F00A         	goto	u1891
  3073  0014C6  EF67  F00A         	goto	u1890
  3074  0014CA                     u1891:
  3075  0014CA  EF54  F00A         	goto	l3642
  3076  0014CE                     u1890:
  3077  0014CE                     
  3078                           ;EEPROM.c: 160:         *(ptr + cnt)= i2c_read(1);
  3079  0014CE  501D               	movf	EEPROM_ReadPg@cnt^0,w,c
  3080  0014D0  2413               	addwf	EEPROM_ReadPg@ptr^0,w,c
  3081  0014D2  6ED9               	movwf	fsr2l,c
  3082  0014D4  0E00               	movlw	0
  3083  0014D6  2014               	addwfc	(EEPROM_ReadPg@ptr+1)^0,w,c
  3084  0014D8  6EDA               	movwf	fsr2h,c
  3085  0014DA  0E01               	movlw	1
  3086  0014DC  EC30  F00D         	call	_i2c_read
  3087  0014E0  6EDF               	movwf	indf2,c
  3088  0014E2                     l1055:
  3089  0014E2  0012               	return		;funcret
  3090  0014E4                     __end_of_EEPROM_ReadPg:
  3091                           	callstack 0
  3092                           
  3093 ;; *************** function _i2c_write *****************
  3094 ;; Defined at:
  3095 ;;		line 59 in file "I2C.c"
  3096 ;; Parameters:    Size  Location     Type
  3097 ;;  data            1    wreg     unsigned char 
  3098 ;; Auto vars:     Size  Location     Type
  3099 ;;  data            1   15[COMRAM] unsigned char 
  3100 ;; Return value:  Size  Location     Type
  3101 ;;                  1    wreg      void 
  3102 ;; Registers used:
  3103 ;;		wreg
  3104 ;; Tracked objects:
  3105 ;;		On entry : 0/0
  3106 ;;		On exit  : 0/0
  3107 ;;		Unchanged: 0/0
  3108 ;; Data sizes:     COMRAM   BANK0   BANK1   BANK2   BANK3   BANK4   BANK5   BANK6   BANK7   BANK8   BANK9  BANK10  BANK1
      +1  BANK12  BANK13  BANK14
  3109 ;;      Params:         0       0       0       0       0       0       0       0       0       0       0       0       
      +0       0       0       0
  3110 ;;      Locals:         1       0       0       0       0       0       0       0       0       0       0       0       
      +0       0       0       0
  3111 ;;      Temps:          0       0       0       0       0       0       0       0       0       0       0       0       
      +0       0       0       0
  3112 ;;      Totals:         1       0       0       0       0       0       0       0       0       0       0       0       
      +0       0       0       0
  3113 ;;Total ram usage:        1 bytes
  3114 ;; Hardware stack levels used: 1
  3115 ;; Hardware stack levels required when called: 8
  3116 ;; This function calls:
  3117 ;;		Nothing
  3118 ;; This function is called by:
  3119 ;;		_EEPROM_WritePg
  3120 ;;		_EEPROM_ReadPg
  3121 ;;		_MAX517_Update
  3122 ;;		_EEPROM_write
  3123 ;;		_EEPROM_Read
  3124 ;;		_i2c_scanBus
  3125 ;;		_i2c_clrBuf
  3126 ;; This function uses a non-reentrant model
  3127 ;;
  3128                           
  3129                           	psect	text25
  3130  001BE0                     __ptext25:
  3131                           	callstack 0
  3132  001BE0                     _i2c_write:
  3133                           	callstack 21
  3134                           
  3135                           ;incstack = 0
  3136                           ;i2c_write@data stored from wreg
  3137  001BE0  6E10               	movwf	i2c_write@data^0,c
  3138  001BE2                     
  3139                           ;I2C.c: 59: void i2c_write(uint8_t data);I2C.c: 60: {;I2C.c: 61:     SSPBUF = data;
  3140  001BE2  C010  FFC9         	movff	i2c_write@data,4041	;volatile
  3141  001BE6                     l1109:
  3142  001BE6  A69E               	btfss	158,3,c	;volatile
  3143  001BE8  EFF8  F00D         	goto	u1581
  3144  001BEC  EFFA  F00D         	goto	u1580
  3145  001BF0                     u1581:
  3146  001BF0  EFF3  F00D         	goto	l1109
  3147  001BF4                     u1580:
  3148  001BF4                     
  3149                           ;I2C.c: 63:     PIR1bits.SSPIF = 0;
  3150  001BF4  969E               	bcf	158,3,c	;volatile
  3151  001BF6  0012               	return		;funcret
  3152  001BF8                     __end_of_i2c_write:
  3153                           	callstack 0
  3154                           
  3155 ;; *************** function _i2c_start *****************
  3156 ;; Defined at:
  3157 ;;		line 30 in file "I2C.c"
  3158 ;; Parameters:    Size  Location     Type
  3159 ;;		None
  3160 ;; Auto vars:     Size  Location     Type
  3161 ;;		None
  3162 ;; Return value:  Size  Location     Type
  3163 ;;                  1    wreg      void 
  3164 ;; Registers used:
  3165 ;;		None
  3166 ;; Tracked objects:
  3167 ;;		On entry : 0/0
  3168 ;;		On exit  : 0/0
  3169 ;;		Unchanged: 0/0
  3170 ;; Data sizes:     COMRAM   BANK0   BANK1   BANK2   BANK3   BANK4   BANK5   BANK6   BANK7   BANK8   BANK9  BANK10  BANK1
      +1  BANK12  BANK13  BANK14
  3171 ;;      Params:         0       0       0       0       0       0       0       0       0       0       0       0       
      +0       0       0       0
  3172 ;;      Locals:         0       0       0       0       0       0       0       0       0       0       0       0       
      +0       0       0       0
  3173 ;;      Temps:          0       0       0       0       0       0       0       0       0       0       0       0       
      +0       0       0       0
  3174 ;;      Totals:         0       0       0       0       0       0       0       0       0       0       0       0       
      +0       0       0       0
  3175 ;;Total ram usage:        0 bytes
  3176 ;; Hardware stack levels used: 1
  3177 ;; Hardware stack levels required when called: 8
  3178 ;; This function calls:
  3179 ;;		Nothing
  3180 ;; This function is called by:
  3181 ;;		_EEPROM_WritePg
  3182 ;;		_EEPROM_ReadPg
  3183 ;;		_MAX517_Update
  3184 ;;		_EEPROM_write
  3185 ;;		_EEPROM_Read
  3186 ;;		_i2c_scanBus
  3187 ;;		_i2c_clrBuf
  3188 ;; This function uses a non-reentrant model
  3189 ;;
  3190                           
  3191                           	psect	text26
  3192  001C20                     __ptext26:
  3193                           	callstack 0
  3194  001C20                     _i2c_start:
  3195                           	callstack 21
  3196  001C20                     
  3197                           ;I2C.c: 31:     SSPCON2bits.SEN = 1;
  3198  001C20  80C5               	bsf	197,0,c	;volatile
  3199  001C22                     l1082:
  3200  001C22  B0C5               	btfsc	197,0,c	;volatile
  3201  001C24  EF16  F00E         	goto	u1571
  3202  001C28  EF18  F00E         	goto	u1570
  3203  001C2C                     u1571:
  3204  001C2C  EF11  F00E         	goto	l1082
  3205  001C30                     u1570:
  3206  001C30                     
  3207                           ;I2C.c: 33:     PIR1bits.SSPIF = 0;
  3208  001C30  969E               	bcf	158,3,c	;volatile
  3209  001C32  0012               	return		;funcret
  3210  001C34                     __end_of_i2c_start:
  3211                           	callstack 0
  3212                           
  3213 ;; *************** function _i2c_read *****************
  3214 ;; Defined at:
  3215 ;;		line 48 in file "I2C.c"
  3216 ;; Parameters:    Size  Location     Type
  3217 ;;  ACK_NACK        1    wreg     unsigned char 
  3218 ;; Auto vars:     Size  Location     Type
  3219 ;;  ACK_NACK        1   15[COMRAM] unsigned char 
  3220 ;; Return value:  Size  Location     Type
  3221 ;;                  1    wreg      unsigned char 
  3222 ;; Registers used:
  3223 ;;		wreg, status,2
  3224 ;; Tracked objects:
  3225 ;;		On entry : 0/0
  3226 ;;		On exit  : 0/0
  3227 ;;		Unchanged: 0/0
  3228 ;; Data sizes:     COMRAM   BANK0   BANK1   BANK2   BANK3   BANK4   BANK5   BANK6   BANK7   BANK8   BANK9  BANK10  BANK1
      +1  BANK12  BANK13  BANK14
  3229 ;;      Params:         0       0       0       0       0       0       0       0       0       0       0       0       
      +0       0       0       0
  3230 ;;      Locals:         1       0       0       0       0       0       0       0       0       0       0       0       
      +0       0       0       0
  3231 ;;      Temps:          0       0       0       0       0       0       0       0       0       0       0       0       
      +0       0       0       0
  3232 ;;      Totals:         1       0       0       0       0       0       0       0       0       0       0       0       
      +0       0       0       0
  3233 ;;Total ram usage:        1 bytes
  3234 ;; Hardware stack levels used: 1
  3235 ;; Hardware stack levels required when called: 8
  3236 ;; This function calls:
  3237 ;;		Nothing
  3238 ;; This function is called by:
  3239 ;;		_EEPROM_ReadPg
  3240 ;;		_EEPROM_Read
  3241 ;; This function uses a non-reentrant model
  3242 ;;
  3243                           
  3244                           	psect	text27
  3245  001A60                     __ptext27:
  3246                           	callstack 0
  3247  001A60                     _i2c_read:
  3248                           	callstack 21
  3249                           
  3250                           ;incstack = 0
  3251                           ;i2c_read@ACK_NACK stored from wreg
  3252  001A60  6E10               	movwf	i2c_read@ACK_NACK^0,c
  3253  001A62                     
  3254                           ;I2C.c: 48: char i2c_read(uint8_t ACK_NACK);I2C.c: 49: {;I2C.c: 50:     SSPSTATbits.BF =
      +                           0;
  3255  001A62  90C7               	bcf	199,0,c	;volatile
  3256                           
  3257                           ;I2C.c: 51:     SSPCON2bits.RCEN = 1;
  3258  001A64  86C5               	bsf	197,3,c	;volatile
  3259  001A66                     l1100:
  3260  001A66  A0C7               	btfss	199,0,c	;volatile
  3261  001A68  EF38  F00D         	goto	u1601
  3262  001A6C  EF3A  F00D         	goto	u1600
  3263  001A70                     u1601:
  3264  001A70  EF33  F00D         	goto	l1100
  3265  001A74                     u1600:
  3266  001A74                     
  3267                           ;I2C.c: 53:     SSPCON2bits.ACKDT = ACK_NACK;
  3268  001A74  B010               	btfsc	i2c_read@ACK_NACK^0,0,c
  3269  001A76  D002               	bra	u1615
  3270  001A78  9AC5               	bcf	197,5,c	;volatile
  3271  001A7A  D001               	bra	u1616
  3272  001A7C                     u1615:
  3273  001A7C  8AC5               	bsf	197,5,c	;volatile
  3274  001A7E                     u1616:
  3275  001A7E                     
  3276                           ;I2C.c: 54:     SSPCON2bits.ACKEN = 1;
  3277  001A7E  88C5               	bsf	197,4,c	;volatile
  3278  001A80                     l1103:
  3279  001A80  B8C5               	btfsc	197,4,c	;volatile
  3280  001A82  EF45  F00D         	goto	u1621
  3281  001A86  EF47  F00D         	goto	u1620
  3282  001A8A                     u1621:
  3283  001A8A  EF40  F00D         	goto	l1103
  3284  001A8E                     u1620:
  3285  001A8E                     
  3286                           ;I2C.c: 56:     return SSPBUF;
  3287  001A8E  50C9               	movf	201,w,c	;volatile
  3288  001A90  0012               	return		;funcret
  3289  001A92                     __end_of_i2c_read:
  3290                           	callstack 0
  3291                           
  3292 ;; *************** function _ADC_StartConversion *****************
  3293 ;; Defined at:
  3294 ;;		line 129 in file "mcc_generated_files/adc.c"
  3295 ;; Parameters:    Size  Location     Type
  3296 ;;  channel         1    wreg     enum E12387
  3297 ;; Auto vars:     Size  Location     Type
  3298 ;;  channel         1   16[COMRAM] enum E12387
  3299 ;; Return value:  Size  Location     Type
  3300 ;;                  1    wreg      void 
  3301 ;; Registers used:
  3302 ;;		wreg, status,2, status,0
  3303 ;; Tracked objects:
  3304 ;;		On entry : 0/0
  3305 ;;		On exit  : 0/0
  3306 ;;		Unchanged: 0/0
  3307 ;; Data sizes:     COMRAM   BANK0   BANK1   BANK2   BANK3   BANK4   BANK5   BANK6   BANK7   BANK8   BANK9  BANK10  BANK1
      +1  BANK12  BANK13  BANK14
  3308 ;;      Params:         0       0       0       0       0       0       0       0       0       0       0       0       
      +0       0       0       0
  3309 ;;      Locals:         1       0       0       0       0       0       0       0       0       0       0       0       
      +0       0       0       0
  3310 ;;      Temps:          1       0       0       0       0       0       0       0       0       0       0       0       
      +0       0       0       0
  3311 ;;      Totals:         2       0       0       0       0       0       0       0       0       0       0       0       
      +0       0       0       0
  3312 ;;Total ram usage:        2 bytes
  3313 ;; Hardware stack levels used: 1
  3314 ;; Hardware stack levels required when called: 8
  3315 ;; This function calls:
  3316 ;;		Nothing
  3317 ;; This function is called by:
  3318 ;;		_main
  3319 ;; This function uses a non-reentrant model
  3320 ;;
  3321                           
  3322                           	psect	text28
  3323  001BC6                     __ptext28:
  3324                           	callstack 0
  3325  001BC6                     _ADC_StartConversion:
  3326                           	callstack 22
  3327                           
  3328                           ;incstack = 0
  3329                           ;ADC_StartConversion@channel stored from wreg
  3330  001BC6  6E11               	movwf	ADC_StartConversion@channel^0,c
  3331  001BC8                     
  3332                           ;mcc_generated_files/adc.c: 129: void ADC_StartConversion(adc_channel_t channel);mcc_gen
      +                          erated_files/adc.c: 130: {;mcc_generated_files/adc.c: 132:     ADCON0bits.CHS = channel;
  3333  001BC8  C011  F010         	movff	ADC_StartConversion@channel,??_ADC_StartConversion
  3334  001BCC  4610               	rlncf	??_ADC_StartConversion^0,f,c
  3335  001BCE  4610               	rlncf	??_ADC_StartConversion^0,f,c
  3336  001BD0  50C2               	movf	194,w,c	;volatile
  3337  001BD2  1810               	xorwf	??_ADC_StartConversion^0,w,c
  3338  001BD4  0B83               	andlw	-125
  3339  001BD6  1810               	xorwf	??_ADC_StartConversion^0,w,c
  3340  001BD8  6EC2               	movwf	194,c	;volatile
  3341  001BDA                     
  3342                           ;mcc_generated_files/adc.c: 135:     ADCON0bits.ADON = 1;
  3343  001BDA  80C2               	bsf	194,0,c	;volatile
  3344  001BDC                     
  3345                           ;mcc_generated_files/adc.c: 139:     ADCON0bits.GO_nDONE = 1;
  3346  001BDC  82C2               	bsf	194,1,c	;volatile
  3347  001BDE  0012               	return		;funcret
  3348  001BE0                     __end_of_ADC_StartConversion:
  3349                           	callstack 0
  3350                           
  3351 ;; *************** function _INTERRUPT_InterruptManagerLow *****************
  3352 ;; Defined at:
  3353 ;;		line 91 in file "mcc_generated_files/interrupt_manager.c"
  3354 ;; Parameters:    Size  Location     Type
  3355 ;;		None
  3356 ;; Auto vars:     Size  Location     Type
  3357 ;;		None
  3358 ;; Return value:  Size  Location     Type
  3359 ;;                  1    wreg      void 
  3360 ;; Registers used:
  3361 ;;		wreg, fsr2l, fsr2h, status,2, status,0, pclath, tosl, cstack
  3362 ;; Tracked objects:
  3363 ;;		On entry : 0/0
  3364 ;;		On exit  : 0/0
  3365 ;;		Unchanged: 0/0
  3366 ;; Data sizes:     COMRAM   BANK0   BANK1   BANK2   BANK3   BANK4   BANK5   BANK6   BANK7   BANK8   BANK9  BANK10  BANK1
      +1  BANK12  BANK13  BANK14
  3367 ;;      Params:         0       0       0       0       0       0       0       0       0       0       0       0       
      +0       0       0       0
  3368 ;;      Locals:         0       0       0       0       0       0       0       0       0       0       0       0       
      +0       0       0       0
  3369 ;;      Temps:          7       0       0       0       0       0       0       0       0       0       0       0       
      +0       0       0       0
  3370 ;;      Totals:         7       0       0       0       0       0       0       0       0       0       0       0       
      +0       0       0       0
  3371 ;;Total ram usage:        7 bytes
  3372 ;; Hardware stack levels used: 1
  3373 ;; Hardware stack levels required when called: 7
  3374 ;; This function calls:
  3375 ;;		Absolute function
  3376 ;;		_EUSART1_Receive_ISR
  3377 ;;		_EUSART1_Transmit_ISR
  3378 ;; This function is called by:
  3379 ;;		Interrupt level 1
  3380 ;; This function uses a non-reentrant model
  3381 ;;
  3382                           
  3383                           	psect	intcodelo
  3384  000018                     __pintcodelo:
  3385                           	callstack 0
  3386  000018                     _INTERRUPT_InterruptManagerLow:
  3387                           	callstack 20
  3388                           
  3389                           ;incstack = 0
  3390  000018  804F               	bsf	int$flags,0,c	;set compiler interrupt flag (level 1)
  3391  00001A  CFD8 F009          	movff	status,??_INTERRUPT_InterruptManagerLow
  3392  00001E  CFE8 F00A          	movff	wreg,??_INTERRUPT_InterruptManagerLow+1
  3393  000022  CFE0 F00B          	movff	bsr,??_INTERRUPT_InterruptManagerLow+2
  3394  000026  CFFA F00C          	movff	pclath,??_INTERRUPT_InterruptManagerLow+3
  3395  00002A  CFFB F00D          	movff	pclatu,??_INTERRUPT_InterruptManagerLow+4
  3396  00002E  CFD9 F00E          	movff	fsr2l,??_INTERRUPT_InterruptManagerLow+5
  3397  000032  CFDA F00F          	movff	fsr2h,??_INTERRUPT_InterruptManagerLow+6
  3398  000036                     
  3399                           ;mcc_generated_files/interrupt_manager.c: 94:     if(PIE1bits.TX1IE == 1 && PIR1bits.TX1
      +                          IF == 1)
  3400  000036  A89D               	btfss	157,4,c	;volatile
  3401  000038  EF20  F000         	goto	i1u223_21
  3402  00003C  EF22  F000         	goto	i1u223_20
  3403  000040                     i1u223_21:
  3404  000040  EF38  F000         	goto	i1l201
  3405  000044                     i1u223_20:
  3406  000044  A89E               	btfss	158,4,c	;volatile
  3407  000046  EF27  F000         	goto	i1u224_21
  3408  00004A  EF29  F000         	goto	i1u224_20
  3409  00004E                     i1u224_21:
  3410  00004E  EF38  F000         	goto	i1l201
  3411  000052                     i1u224_20:
  3412  000052                     
  3413                           ;mcc_generated_files/interrupt_manager.c: 95:     {;mcc_generated_files/interrupt_manage
      +                          r.c: 96:         EUSART1_TxDefaultInterruptHandler();
  3414  000052  D802               	call	i1u225_28
  3415  000054  EF36  F000         	goto	i1u225_29
  3416  000058                     i1u225_28:
  3417  000058  0005               	push	
  3418  00005A  6EFA               	movwf	pclath,c
  3419  00005C  5035               	movf	_EUSART1_TxDefaultInterruptHandler^0,w,c
  3420  00005E  6EFD               	movwf	tosl,c
  3421  000060  5036               	movf	(_EUSART1_TxDefaultInterruptHandler+1)^0,w,c
  3422  000062  6EFE               	movwf	tosh,c
  3423  000064  50F8               	movf	tblptru,w,c
  3424  000066  6EFF               	movwf	tosu,c
  3425  000068  50FA               	movf	pclath,w,c
  3426  00006A  0012               	return		;indir
  3427  00006C                     i1u225_29:
  3428                           
  3429                           ;mcc_generated_files/interrupt_manager.c: 97:     }
  3430  00006C  EF53  F000         	goto	i1l205
  3431  000070                     i1l201:
  3432  000070  AA9D               	btfss	157,5,c	;volatile
  3433  000072  EF3D  F000         	goto	i1u226_21
  3434  000076  EF3F  F000         	goto	i1u226_20
  3435  00007A                     i1u226_21:
  3436  00007A  EF53  F000         	goto	i1l205
  3437  00007E                     i1u226_20:
  3438  00007E  AA9E               	btfss	158,5,c	;volatile
  3439  000080  EF44  F000         	goto	i1u227_21
  3440  000084  EF46  F000         	goto	i1u227_20
  3441  000088                     i1u227_21:
  3442  000088  EF53  F000         	goto	i1l205
  3443  00008C                     i1u227_20:
  3444  00008C                     
  3445                           ;mcc_generated_files/interrupt_manager.c: 99:     {;mcc_generated_files/interrupt_manage
      +                          r.c: 100:         EUSART1_RxDefaultInterruptHandler();
  3446  00008C  D802               	call	i1u228_28
  3447  00008E  EF53  F000         	goto	i1u228_29
  3448  000092                     i1u228_28:
  3449  000092  0005               	push	
  3450  000094  6EFA               	movwf	pclath,c
  3451  000096  5033               	movf	_EUSART1_RxDefaultInterruptHandler^0,w,c
  3452  000098  6EFD               	movwf	tosl,c
  3453  00009A  5034               	movf	(_EUSART1_RxDefaultInterruptHandler+1)^0,w,c
  3454  00009C  6EFE               	movwf	tosh,c
  3455  00009E  50F8               	movf	tblptru,w,c
  3456  0000A0  6EFF               	movwf	tosu,c
  3457  0000A2  50FA               	movf	pclath,w,c
  3458  0000A4  0012               	return		;indir
  3459  0000A6                     i1u228_29:
  3460  0000A6                     i1l205:
  3461  0000A6  C00F  FFDA         	movff	??_INTERRUPT_InterruptManagerLow+6,fsr2h
  3462  0000AA  C00E  FFD9         	movff	??_INTERRUPT_InterruptManagerLow+5,fsr2l
  3463  0000AE  C00D  FFFB         	movff	??_INTERRUPT_InterruptManagerLow+4,pclatu
  3464  0000B2  C00C  FFFA         	movff	??_INTERRUPT_InterruptManagerLow+3,pclath
  3465  0000B6  C00B  FFE0         	movff	??_INTERRUPT_InterruptManagerLow+2,bsr
  3466  0000BA  C00A  FFE8         	movff	??_INTERRUPT_InterruptManagerLow+1,wreg
  3467  0000BE  C009  FFD8         	movff	??_INTERRUPT_InterruptManagerLow,status
  3468  0000C2  904F               	bcf	int$flags,0,c	;clear compiler interrupt flag (level 1)
  3469  0000C4  0010               	retfie	
  3470  0000C6                     __end_of_INTERRUPT_InterruptManagerLow:
  3471                           	callstack 0
  3472                           
  3473 ;; *************** function _EUSART1_Transmit_ISR *****************
  3474 ;; Defined at:
  3475 ;;		line 197 in file "mcc_generated_files/eusart1.c"
  3476 ;; Parameters:    Size  Location     Type
  3477 ;;		None
  3478 ;; Auto vars:     Size  Location     Type
  3479 ;;		None
  3480 ;; Return value:  Size  Location     Type
  3481 ;;                  1    wreg      void 
  3482 ;; Registers used:
  3483 ;;		wreg, fsr2l, fsr2h, status,2, status,0
  3484 ;; Tracked objects:
  3485 ;;		On entry : 0/0
  3486 ;;		On exit  : 0/0
  3487 ;;		Unchanged: 0/0
  3488 ;; Data sizes:     COMRAM   BANK0   BANK1   BANK2   BANK3   BANK4   BANK5   BANK6   BANK7   BANK8   BANK9  BANK10  BANK1
      +1  BANK12  BANK13  BANK14
  3489 ;;      Params:         0       0       0       0       0       0       0       0       0       0       0       0       
      +0       0       0       0
  3490 ;;      Locals:         0       0       0       0       0       0       0       0       0       0       0       0       
      +0       0       0       0
  3491 ;;      Temps:          0       0       0       0       0       0       0       0       0       0       0       0       
      +0       0       0       0
  3492 ;;      Totals:         0       0       0       0       0       0       0       0       0       0       0       0       
      +0       0       0       0
  3493 ;;Total ram usage:        0 bytes
  3494 ;; Hardware stack levels used: 1
  3495 ;; Hardware stack levels required when called: 4
  3496 ;; This function calls:
  3497 ;;		Nothing
  3498 ;; This function is called by:
  3499 ;;		_EUSART1_Initialize
  3500 ;;		_INTERRUPT_InterruptManagerLow
  3501 ;; This function uses a non-reentrant model
  3502 ;;
  3503                           
  3504                           	psect	text30
  3505  001978                     __ptext30:
  3506                           	callstack 0
  3507  001978                     _EUSART1_Transmit_ISR:
  3508                           	callstack 22
  3509  001978                     
  3510                           ;mcc_generated_files/eusart1.c: 201:     if(sizeof(eusart1TxBuffer) > eusart1TxBufferRem
      +                          aining)
  3511  001978  0E40               	movlw	64
  3512  00197A  6038               	cpfslt	_eusart1TxBufferRemaining^0,c	;volatile
  3513  00197C  EFC2  F00C         	goto	i1u174_21
  3514  001980  EFC4  F00C         	goto	i1u174_20
  3515  001984                     i1u174_21:
  3516  001984  EFDA  F00C         	goto	i1l311
  3517  001988                     i1u174_20:
  3518  001988                     
  3519                           ;mcc_generated_files/eusart1.c: 202:     {;mcc_generated_files/eusart1.c: 203:         T
      +                          XREG1 = eusart1TxBuffer[eusart1TxTail++];
  3520  001988  0E40               	movlw	low _eusart1TxBuffer
  3521  00198A  244A               	addwf	_eusart1TxTail^0,w,c	;volatile
  3522  00198C  6ED9               	movwf	fsr2l,c
  3523  00198E  6ADA               	clrf	fsr2h,c
  3524  001990  0E01               	movlw	high _eusart1TxBuffer
  3525  001992  22DA               	addwfc	fsr2h,f,c
  3526  001994  50DF               	movf	indf2,w,c
  3527  001996  6EAD               	movwf	173,c	;volatile
  3528  001998  2A4A               	incf	_eusart1TxTail^0,f,c	;volatile
  3529  00199A                     
  3530                           ;mcc_generated_files/eusart1.c: 204:         if(sizeof(eusart1TxBuffer) <= eusart1TxTail
      +                          )
  3531  00199A  0E3F               	movlw	63
  3532  00199C  644A               	cpfsgt	_eusart1TxTail^0,c	;volatile
  3533  00199E  EFD3  F00C         	goto	i1u175_21
  3534  0019A2  EFD5  F00C         	goto	i1u175_20
  3535  0019A6                     i1u175_21:
  3536  0019A6  EFD7  F00C         	goto	i1l3550
  3537  0019AA                     i1u175_20:
  3538  0019AA                     
  3539                           ;mcc_generated_files/eusart1.c: 205:         {;mcc_generated_files/eusart1.c: 206:      
      +                                 eusart1TxTail = 0;
  3540  0019AA  0E00               	movlw	0
  3541  0019AC  6E4A               	movwf	_eusart1TxTail^0,c	;volatile
  3542  0019AE                     i1l3550:
  3543                           
  3544                           ;mcc_generated_files/eusart1.c: 208:         eusart1TxBufferRemaining++;
  3545  0019AE  2A38               	incf	_eusart1TxBufferRemaining^0,f,c	;volatile
  3546                           
  3547                           ;mcc_generated_files/eusart1.c: 209:     }
  3548  0019B0  EFDB  F00C         	goto	i1l314
  3549  0019B4                     i1l311:
  3550                           
  3551                           ;mcc_generated_files/eusart1.c: 211:     {;mcc_generated_files/eusart1.c: 212:         P
      +                          IE1bits.TX1IE = 0;
  3552  0019B4  989D               	bcf	157,4,c	;volatile
  3553  0019B6                     i1l314:
  3554  0019B6  0012               	return		;funcret
  3555  0019B8                     __end_of_EUSART1_Transmit_ISR:
  3556                           	callstack 0
  3557                           
  3558 ;; *************** function _EUSART1_Receive_ISR *****************
  3559 ;; Defined at:
  3560 ;;		line 216 in file "mcc_generated_files/eusart1.c"
  3561 ;; Parameters:    Size  Location     Type
  3562 ;;		None
  3563 ;; Auto vars:     Size  Location     Type
  3564 ;;		None
  3565 ;; Return value:  Size  Location     Type
  3566 ;;                  1    wreg      void 
  3567 ;; Registers used:
  3568 ;;		wreg, fsr2l, fsr2h, status,2, status,0, pclath, tosl, cstack
  3569 ;; Tracked objects:
  3570 ;;		On entry : 0/0
  3571 ;;		On exit  : 0/0
  3572 ;;		Unchanged: 0/0
  3573 ;; Data sizes:     COMRAM   BANK0   BANK1   BANK2   BANK3   BANK4   BANK5   BANK6   BANK7   BANK8   BANK9  BANK10  BANK1
      +1  BANK12  BANK13  BANK14
  3574 ;;      Params:         0       0       0       0       0       0       0       0       0       0       0       0       
      +0       0       0       0
  3575 ;;      Locals:         0       0       0       0       0       0       0       0       0       0       0       0       
      +0       0       0       0
  3576 ;;      Temps:          0       0       0       0       0       0       0       0       0       0       0       0       
      +0       0       0       0
  3577 ;;      Totals:         0       0       0       0       0       0       0       0       0       0       0       0       
      +0       0       0       0
  3578 ;;Total ram usage:        0 bytes
  3579 ;; Hardware stack levels used: 1
  3580 ;; Hardware stack levels required when called: 6
  3581 ;; This function calls:
  3582 ;;		Absolute function
  3583 ;;		_EUSART1_DefaultErrorHandler
  3584 ;;		_EUSART1_DefaultFramingErrorHandler
  3585 ;;		_EUSART1_DefaultOverrunErrorHandler
  3586 ;;		_EUSART1_RxDataHandler
  3587 ;; This function is called by:
  3588 ;;		_EUSART1_Initialize
  3589 ;;		_INTERRUPT_InterruptManagerLow
  3590 ;; This function uses a non-reentrant model
  3591 ;;
  3592                           
  3593                           	psect	text31
  3594  0015C8                     __ptext31:
  3595                           	callstack 0
  3596  0015C8                     _EUSART1_Receive_ISR:
  3597                           	callstack 20
  3598  0015C8                     
  3599                           ;mcc_generated_files/eusart1.c: 219:     eusart1RxStatusBuffer[eusart1RxHead].status = 0
      +                          ;
  3600  0015C8  0E60               	movlw	low _eusart1RxStatusBuffer
  3601  0015CA  2449               	addwf	_eusart1RxHead^0,w,c	;volatile
  3602  0015CC  6ED9               	movwf	fsr2l,c
  3603  0015CE  6ADA               	clrf	fsr2h,c
  3604  0015D0  0E00               	movlw	high _eusart1RxStatusBuffer
  3605  0015D2  22DA               	addwfc	fsr2h,f,c
  3606  0015D4  0E00               	movlw	0
  3607  0015D6  6EDF               	movwf	indf2,c
  3608  0015D8                     
  3609                           ;mcc_generated_files/eusart1.c: 221:     if(RCSTA1bits.FERR){
  3610  0015D8  A4AB               	btfss	171,2,c	;volatile
  3611  0015DA  EFF1  F00A         	goto	i1u176_21
  3612  0015DE  EFF3  F00A         	goto	i1u176_20
  3613  0015E2                     i1u176_21:
  3614  0015E2  EF08  F00B         	goto	i1l3560
  3615  0015E6                     i1u176_20:
  3616  0015E6                     
  3617                           ;mcc_generated_files/eusart1.c: 222:         eusart1RxStatusBuffer[eusart1RxHead].ferr =
      +                           1;
  3618  0015E6  0E60               	movlw	low _eusart1RxStatusBuffer
  3619  0015E8  2449               	addwf	_eusart1RxHead^0,w,c	;volatile
  3620  0015EA  6ED9               	movwf	fsr2l,c
  3621  0015EC  6ADA               	clrf	fsr2h,c
  3622  0015EE  0E00               	movlw	high _eusart1RxStatusBuffer
  3623  0015F0  22DA               	addwfc	fsr2h,f,c
  3624  0015F2  0100               	movlb	0	; () banked
  3625  0015F4  82DF               	bsf	indf2,1,c
  3626  0015F6                     
  3627                           ; BSR set to: 0
  3628                           ;mcc_generated_files/eusart1.c: 223:         EUSART1_FramingErrorHandler();
  3629  0015F6  D802               	call	i1u177_28
  3630  0015F8  EF08  F00B         	goto	i1u177_29
  3631  0015FC                     i1u177_28:
  3632  0015FC  0005               	push	
  3633  0015FE  6EFA               	movwf	pclath,c
  3634  001600  5031               	movf	_EUSART1_FramingErrorHandler^0,w,c
  3635  001602  6EFD               	movwf	tosl,c
  3636  001604  5032               	movf	(_EUSART1_FramingErrorHandler+1)^0,w,c
  3637  001606  6EFE               	movwf	tosh,c
  3638  001608  50F8               	movf	tblptru,w,c
  3639  00160A  6EFF               	movwf	tosu,c
  3640  00160C  50FA               	movf	pclath,w,c
  3641  00160E  0012               	return		;indir
  3642  001610                     i1u177_29:
  3643  001610                     i1l3560:
  3644                           
  3645                           ;mcc_generated_files/eusart1.c: 226:     if(RCSTA1bits.OERR){
  3646  001610  A2AB               	btfss	171,1,c	;volatile
  3647  001612  EF0D  F00B         	goto	i1u178_21
  3648  001616  EF0F  F00B         	goto	i1u178_20
  3649  00161A                     i1u178_21:
  3650  00161A  EF24  F00B         	goto	i1l3566
  3651  00161E                     i1u178_20:
  3652  00161E                     
  3653                           ;mcc_generated_files/eusart1.c: 227:         eusart1RxStatusBuffer[eusart1RxHead].oerr =
      +                           1;
  3654  00161E  0E60               	movlw	low _eusart1RxStatusBuffer
  3655  001620  2449               	addwf	_eusart1RxHead^0,w,c	;volatile
  3656  001622  6ED9               	movwf	fsr2l,c
  3657  001624  6ADA               	clrf	fsr2h,c
  3658  001626  0E00               	movlw	high _eusart1RxStatusBuffer
  3659  001628  22DA               	addwfc	fsr2h,f,c
  3660  00162A  0100               	movlb	0	; () banked
  3661  00162C  84DF               	bsf	indf2,2,c
  3662  00162E                     
  3663                           ; BSR set to: 0
  3664                           ;mcc_generated_files/eusart1.c: 228:         EUSART1_OverrunErrorHandler();
  3665  00162E  D802               	call	i1u179_28
  3666  001630  EF24  F00B         	goto	i1u179_29
  3667  001634                     i1u179_28:
  3668  001634  0005               	push	
  3669  001636  6EFA               	movwf	pclath,c
  3670  001638  502F               	movf	_EUSART1_OverrunErrorHandler^0,w,c
  3671  00163A  6EFD               	movwf	tosl,c
  3672  00163C  5030               	movf	(_EUSART1_OverrunErrorHandler+1)^0,w,c
  3673  00163E  6EFE               	movwf	tosh,c
  3674  001640  50F8               	movf	tblptru,w,c
  3675  001642  6EFF               	movwf	tosu,c
  3676  001644  50FA               	movf	pclath,w,c
  3677  001646  0012               	return		;indir
  3678  001648                     i1u179_29:
  3679  001648                     i1l3566:
  3680                           
  3681                           ;mcc_generated_files/eusart1.c: 231:     if(eusart1RxStatusBuffer[eusart1RxHead].status)
      +                          {
  3682  001648  0E60               	movlw	low _eusart1RxStatusBuffer
  3683  00164A  2449               	addwf	_eusart1RxHead^0,w,c	;volatile
  3684  00164C  6ED9               	movwf	fsr2l,c
  3685  00164E  6ADA               	clrf	fsr2h,c
  3686  001650  0E00               	movlw	high _eusart1RxStatusBuffer
  3687  001652  22DA               	addwfc	fsr2h,f,c
  3688  001654  50DF               	movf	indf2,w,c
  3689  001656  B4D8               	btfsc	status,2,c
  3690  001658  EF30  F00B         	goto	i1u180_21
  3691  00165C  EF32  F00B         	goto	i1u180_20
  3692  001660                     i1u180_21:
  3693  001660  EF41  F00B         	goto	i1l3570
  3694  001664                     i1u180_20:
  3695  001664                     
  3696                           ;mcc_generated_files/eusart1.c: 232:         EUSART1_ErrorHandler();
  3697  001664  D802               	call	i1u181_28
  3698  001666  EF3F  F00B         	goto	i1u181_29
  3699  00166A                     i1u181_28:
  3700  00166A  0005               	push	
  3701  00166C  6EFA               	movwf	pclath,c
  3702  00166E  502D               	movf	_EUSART1_ErrorHandler^0,w,c
  3703  001670  6EFD               	movwf	tosl,c
  3704  001672  502E               	movf	(_EUSART1_ErrorHandler+1)^0,w,c
  3705  001674  6EFE               	movwf	tosh,c
  3706  001676  50F8               	movf	tblptru,w,c
  3707  001678  6EFF               	movwf	tosu,c
  3708  00167A  50FA               	movf	pclath,w,c
  3709  00167C  0012               	return		;indir
  3710  00167E                     i1u181_29:
  3711                           
  3712                           ;mcc_generated_files/eusart1.c: 233:     } else {
  3713  00167E  EF43  F00B         	goto	i1l321
  3714  001682                     i1l3570:
  3715                           
  3716                           ;mcc_generated_files/eusart1.c: 234:         EUSART1_RxDataHandler();
  3717  001682  EC61  F00D         	call	_EUSART1_RxDataHandler	;wreg free
  3718  001686                     i1l321:
  3719  001686  0012               	return		;funcret
  3720  001688                     __end_of_EUSART1_Receive_ISR:
  3721                           	callstack 0
  3722                           
  3723 ;; *************** function _EUSART1_DefaultOverrunErrorHandler *****************
  3724 ;; Defined at:
  3725 ;;		line 252 in file "mcc_generated_files/eusart1.c"
  3726 ;; Parameters:    Size  Location     Type
  3727 ;;		None
  3728 ;; Auto vars:     Size  Location     Type
  3729 ;;		None
  3730 ;; Return value:  Size  Location     Type
  3731 ;;                  1    wreg      void 
  3732 ;; Registers used:
  3733 ;;		None
  3734 ;; Tracked objects:
  3735 ;;		On entry : 0/0
  3736 ;;		On exit  : 0/0
  3737 ;;		Unchanged: 0/0
  3738 ;; Data sizes:     COMRAM   BANK0   BANK1   BANK2   BANK3   BANK4   BANK5   BANK6   BANK7   BANK8   BANK9  BANK10  BANK1
      +1  BANK12  BANK13  BANK14
  3739 ;;      Params:         0       0       0       0       0       0       0       0       0       0       0       0       
      +0       0       0       0
  3740 ;;      Locals:         0       0       0       0       0       0       0       0       0       0       0       0       
      +0       0       0       0
  3741 ;;      Temps:          0       0       0       0       0       0       0       0       0       0       0       0       
      +0       0       0       0
  3742 ;;      Totals:         0       0       0       0       0       0       0       0       0       0       0       0       
      +0       0       0       0
  3743 ;;Total ram usage:        0 bytes
  3744 ;; Hardware stack levels used: 1
  3745 ;; Hardware stack levels required when called: 4
  3746 ;; This function calls:
  3747 ;;		Nothing
  3748 ;; This function is called by:
  3749 ;;		_EUSART1_Initialize
  3750 ;;		_EUSART1_Receive_ISR
  3751 ;; This function uses a non-reentrant model
  3752 ;;
  3753                           
  3754                           	psect	text32
  3755  001CBA                     __ptext32:
  3756                           	callstack 0
  3757  001CBA                     _EUSART1_DefaultOverrunErrorHandler:
  3758                           	callstack 21
  3759  001CBA                     
  3760                           ;mcc_generated_files/eusart1.c: 255:     RCSTA1bits.CREN = 0;
  3761  001CBA  98AB               	bcf	171,4,c	;volatile
  3762                           
  3763                           ;mcc_generated_files/eusart1.c: 256:     RCSTA1bits.CREN = 1;
  3764  001CBC  88AB               	bsf	171,4,c	;volatile
  3765  001CBE  0012               	return		;funcret
  3766  001CC0                     __end_of_EUSART1_DefaultOverrunErrorHandler:
  3767                           	callstack 0
  3768                           
  3769 ;; *************** function _EUSART1_DefaultFramingErrorHandler *****************
  3770 ;; Defined at:
  3771 ;;		line 250 in file "mcc_generated_files/eusart1.c"
  3772 ;; Parameters:    Size  Location     Type
  3773 ;;		None
  3774 ;; Auto vars:     Size  Location     Type
  3775 ;;		None
  3776 ;; Return value:  Size  Location     Type
  3777 ;;                  1    wreg      void 
  3778 ;; Registers used:
  3779 ;;		None
  3780 ;; Tracked objects:
  3781 ;;		On entry : 0/0
  3782 ;;		On exit  : 0/0
  3783 ;;		Unchanged: 0/0
  3784 ;; Data sizes:     COMRAM   BANK0   BANK1   BANK2   BANK3   BANK4   BANK5   BANK6   BANK7   BANK8   BANK9  BANK10  BANK1
      +1  BANK12  BANK13  BANK14
  3785 ;;      Params:         0       0       0       0       0       0       0       0       0       0       0       0       
      +0       0       0       0
  3786 ;;      Locals:         0       0       0       0       0       0       0       0       0       0       0       0       
      +0       0       0       0
  3787 ;;      Temps:          0       0       0       0       0       0       0       0       0       0       0       0       
      +0       0       0       0
  3788 ;;      Totals:         0       0       0       0       0       0       0       0       0       0       0       0       
      +0       0       0       0
  3789 ;;Total ram usage:        0 bytes
  3790 ;; Hardware stack levels used: 1
  3791 ;; Hardware stack levels required when called: 4
  3792 ;; This function calls:
  3793 ;;		Nothing
  3794 ;; This function is called by:
  3795 ;;		_EUSART1_Initialize
  3796 ;;		_EUSART1_Receive_ISR
  3797 ;; This function uses a non-reentrant model
  3798 ;;
  3799                           
  3800                           	psect	text33
  3801  001CCA                     __ptext33:
  3802                           	callstack 0
  3803  001CCA                     _EUSART1_DefaultFramingErrorHandler:
  3804                           	callstack 21
  3805  001CCA  0012               	return		;funcret
  3806  001CCC                     __end_of_EUSART1_DefaultFramingErrorHandler:
  3807                           	callstack 0
  3808                           
  3809 ;; *************** function _EUSART1_DefaultErrorHandler *****************
  3810 ;; Defined at:
  3811 ;;		line 260 in file "mcc_generated_files/eusart1.c"
  3812 ;; Parameters:    Size  Location     Type
  3813 ;;		None
  3814 ;; Auto vars:     Size  Location     Type
  3815 ;;		None
  3816 ;; Return value:  Size  Location     Type
  3817 ;;                  1    wreg      void 
  3818 ;; Registers used:
  3819 ;;		wreg, fsr2l, fsr2h, status,2, status,0, cstack
  3820 ;; Tracked objects:
  3821 ;;		On entry : 0/0
  3822 ;;		On exit  : 0/0
  3823 ;;		Unchanged: 0/0
  3824 ;; Data sizes:     COMRAM   BANK0   BANK1   BANK2   BANK3   BANK4   BANK5   BANK6   BANK7   BANK8   BANK9  BANK10  BANK1
      +1  BANK12  BANK13  BANK14
  3825 ;;      Params:         0       0       0       0       0       0       0       0       0       0       0       0       
      +0       0       0       0
  3826 ;;      Locals:         0       0       0       0       0       0       0       0       0       0       0       0       
      +0       0       0       0
  3827 ;;      Temps:          0       0       0       0       0       0       0       0       0       0       0       0       
      +0       0       0       0
  3828 ;;      Totals:         0       0       0       0       0       0       0       0       0       0       0       0       
      +0       0       0       0
  3829 ;;Total ram usage:        0 bytes
  3830 ;; Hardware stack levels used: 1
  3831 ;; Hardware stack levels required when called: 5
  3832 ;; This function calls:
  3833 ;;		_EUSART1_RxDataHandler
  3834 ;; This function is called by:
  3835 ;;		_EUSART1_Initialize
  3836 ;;		_EUSART1_Receive_ISR
  3837 ;; This function uses a non-reentrant model
  3838 ;;
  3839                           
  3840                           	psect	text34
  3841  001CC0                     __ptext34:
  3842                           	callstack 0
  3843  001CC0                     _EUSART1_DefaultErrorHandler:
  3844                           	callstack 20
  3845  001CC0                     
  3846                           ;mcc_generated_files/eusart1.c: 261:     EUSART1_RxDataHandler();
  3847  001CC0  EC61  F00D         	call	_EUSART1_RxDataHandler	;wreg free
  3848  001CC4  0012               	return		;funcret
  3849  001CC6                     __end_of_EUSART1_DefaultErrorHandler:
  3850                           	callstack 0
  3851                           
  3852 ;; *************** function _EUSART1_RxDataHandler *****************
  3853 ;; Defined at:
  3854 ;;		line 240 in file "mcc_generated_files/eusart1.c"
  3855 ;; Parameters:    Size  Location     Type
  3856 ;;		None
  3857 ;; Auto vars:     Size  Location     Type
  3858 ;;		None
  3859 ;; Return value:  Size  Location     Type
  3860 ;;                  1    wreg      void 
  3861 ;; Registers used:
  3862 ;;		wreg, fsr2l, fsr2h, status,2, status,0
  3863 ;; Tracked objects:
  3864 ;;		On entry : 0/0
  3865 ;;		On exit  : 0/0
  3866 ;;		Unchanged: 0/0
  3867 ;; Data sizes:     COMRAM   BANK0   BANK1   BANK2   BANK3   BANK4   BANK5   BANK6   BANK7   BANK8   BANK9  BANK10  BANK1
      +1  BANK12  BANK13  BANK14
  3868 ;;      Params:         0       0       0       0       0       0       0       0       0       0       0       0       
      +0       0       0       0
  3869 ;;      Locals:         0       0       0       0       0       0       0       0       0       0       0       0       
      +0       0       0       0
  3870 ;;      Temps:          0       0       0       0       0       0       0       0       0       0       0       0       
      +0       0       0       0
  3871 ;;      Totals:         0       0       0       0       0       0       0       0       0       0       0       0       
      +0       0       0       0
  3872 ;;Total ram usage:        0 bytes
  3873 ;; Hardware stack levels used: 1
  3874 ;; Hardware stack levels required when called: 4
  3875 ;; This function calls:
  3876 ;;		Nothing
  3877 ;; This function is called by:
  3878 ;;		_EUSART1_Receive_ISR
  3879 ;;		_EUSART1_DefaultErrorHandler
  3880 ;; This function uses a non-reentrant model
  3881 ;;
  3882                           
  3883                           	psect	text35
  3884  001AC2                     __ptext35:
  3885                           	callstack 0
  3886  001AC2                     _EUSART1_RxDataHandler:
  3887                           	callstack 21
  3888  001AC2                     
  3889                           ;mcc_generated_files/eusart1.c: 242:     eusart1RxBuffer[eusart1RxHead++] = RCREG1;
  3890  001AC2  0E00               	movlw	low _eusart1RxBuffer
  3891  001AC4  2449               	addwf	_eusart1RxHead^0,w,c	;volatile
  3892  001AC6  6ED9               	movwf	fsr2l,c
  3893  001AC8  6ADA               	clrf	fsr2h,c
  3894  001ACA  0E01               	movlw	high _eusart1RxBuffer
  3895  001ACC  22DA               	addwfc	fsr2h,f,c
  3896  001ACE  CFAE FFDF          	movff	4014,indf2	;volatile
  3897  001AD2  2A49               	incf	_eusart1RxHead^0,f,c	;volatile
  3898  001AD4                     
  3899                           ;mcc_generated_files/eusart1.c: 243:     if(sizeof(eusart1RxBuffer) <= eusart1RxHead)
  3900  001AD4  0E3F               	movlw	63
  3901  001AD6  6449               	cpfsgt	_eusart1RxHead^0,c	;volatile
  3902  001AD8  EF70  F00D         	goto	i1u140_21
  3903  001ADC  EF72  F00D         	goto	i1u140_20
  3904  001AE0                     i1u140_21:
  3905  001AE0  EF74  F00D         	goto	i1l3212
  3906  001AE4                     i1u140_20:
  3907  001AE4                     
  3908                           ;mcc_generated_files/eusart1.c: 244:     {;mcc_generated_files/eusart1.c: 245:         e
      +                          usart1RxHead = 0;
  3909  001AE4  0E00               	movlw	0
  3910  001AE6  6E49               	movwf	_eusart1RxHead^0,c	;volatile
  3911  001AE8                     i1l3212:
  3912                           
  3913                           ;mcc_generated_files/eusart1.c: 247:     eusart1RxCount++;
  3914  001AE8  2A47               	incf	_eusart1RxCount^0,f,c	;volatile
  3915  001AEA  0012               	return		;funcret
  3916  001AEC                     __end_of_EUSART1_RxDataHandler:
  3917                           	callstack 0
  3918                           
  3919 ;; *************** function _INTERRUPT_InterruptManagerHigh *****************
  3920 ;; Defined at:
  3921 ;;		line 74 in file "mcc_generated_files/interrupt_manager.c"
  3922 ;; Parameters:    Size  Location     Type
  3923 ;;		None
  3924 ;; Auto vars:     Size  Location     Type
  3925 ;;		None
  3926 ;; Return value:  Size  Location     Type
  3927 ;;                  1    wreg      void 
  3928 ;; Registers used:
  3929 ;;		wreg, fsr2l, fsr2h, status,2, status,0, pclath, tosl, cstack
  3930 ;; Tracked objects:
  3931 ;;		On entry : 0/0
  3932 ;;		On exit  : 0/0
  3933 ;;		Unchanged: 0/0
  3934 ;; Data sizes:     COMRAM   BANK0   BANK1   BANK2   BANK3   BANK4   BANK5   BANK6   BANK7   BANK8   BANK9  BANK10  BANK1
      +1  BANK12  BANK13  BANK14
  3935 ;;      Params:         0       0       0       0       0       0       0       0       0       0       0       0       
      +0       0       0       0
  3936 ;;      Locals:         0       0       0       0       0       0       0       0       0       0       0       0       
      +0       0       0       0
  3937 ;;      Temps:          4       0       0       0       0       0       0       0       0       0       0       0       
      +0       0       0       0
  3938 ;;      Totals:         4       0       0       0       0       0       0       0       0       0       0       0       
      +0       0       0       0
  3939 ;;Total ram usage:        4 bytes
  3940 ;; Hardware stack levels used: 1
  3941 ;; Hardware stack levels required when called: 3
  3942 ;; This function calls:
  3943 ;;		_ADC_ISR
  3944 ;;		_TMR1_ISR
  3945 ;; This function is called by:
  3946 ;;		Interrupt level 2
  3947 ;; This function uses a non-reentrant model
  3948 ;;
  3949                           
  3950                           	psect	intcode
  3951  000008                     __pintcode:
  3952                           	callstack 0
  3953  000008                     _INTERRUPT_InterruptManagerHigh:
  3954                           	callstack 20
  3955                           
  3956                           ;incstack = 0
  3957  000008  824F               	bsf	int$flags,1,c	;set compiler interrupt flag (level 2)
  3958  00000A  EF5B  F00C         	goto	int_func
  3959                           
  3960                           	psect	intcode_body
  3961  0018B6                     __pintcode_body:
  3962                           	callstack 20
  3963  0018B6                     int_func:
  3964                           	callstack 20
  3965  0018B6  CFFA F005          	movff	pclath,??_INTERRUPT_InterruptManagerHigh
  3966  0018BA  CFFB F006          	movff	pclatu,??_INTERRUPT_InterruptManagerHigh+1
  3967  0018BE  CFD9 F007          	movff	fsr2l,??_INTERRUPT_InterruptManagerHigh+2
  3968  0018C2  CFDA F008          	movff	fsr2h,??_INTERRUPT_InterruptManagerHigh+3
  3969  0018C6                     
  3970                           ;mcc_generated_files/interrupt_manager.c: 77:     if(PIE1bits.ADIE == 1 && PIR1bits.ADIF
      +                           == 1)
  3971  0018C6  AC9D               	btfss	157,6,c	;volatile
  3972  0018C8  EF68  F00C         	goto	i2u219_41
  3973  0018CC  EF6A  F00C         	goto	i2u219_40
  3974  0018D0                     i2u219_41:
  3975  0018D0  EF75  F00C         	goto	i2l192
  3976  0018D4                     i2u219_40:
  3977  0018D4  AC9E               	btfss	158,6,c	;volatile
  3978  0018D6  EF6F  F00C         	goto	i2u220_41
  3979  0018DA  EF71  F00C         	goto	i2u220_40
  3980  0018DE                     i2u220_41:
  3981  0018DE  EF75  F00C         	goto	i2l192
  3982  0018E2                     i2u220_40:
  3983  0018E2                     
  3984                           ;mcc_generated_files/interrupt_manager.c: 78:     {;mcc_generated_files/interrupt_manage
      +                          r.c: 79:         ADC_ISR();
  3985  0018E2  EC49  F00D         	call	_ADC_ISR	;wreg free
  3986                           
  3987                           ;mcc_generated_files/interrupt_manager.c: 80:     }
  3988  0018E6  EF85  F00C         	goto	i2l196
  3989  0018EA                     i2l192:
  3990  0018EA  A09D               	btfss	157,0,c	;volatile
  3991  0018EC  EF7A  F00C         	goto	i2u221_41
  3992  0018F0  EF7C  F00C         	goto	i2u221_40
  3993  0018F4                     i2u221_41:
  3994  0018F4  EF85  F00C         	goto	i2l196
  3995  0018F8                     i2u221_40:
  3996  0018F8  A09E               	btfss	158,0,c	;volatile
  3997  0018FA  EF81  F00C         	goto	i2u222_41
  3998  0018FE  EF83  F00C         	goto	i2u222_40
  3999  001902                     i2u222_41:
  4000  001902  EF85  F00C         	goto	i2l196
  4001  001906                     i2u222_40:
  4002  001906                     
  4003                           ;mcc_generated_files/interrupt_manager.c: 82:     {;mcc_generated_files/interrupt_manage
      +                          r.c: 83:         TMR1_ISR();
  4004  001906  ECDC  F00C         	call	_TMR1_ISR	;wreg free
  4005  00190A                     i2l196:
  4006  00190A  C008  FFDA         	movff	??_INTERRUPT_InterruptManagerHigh+3,fsr2h
  4007  00190E  C007  FFD9         	movff	??_INTERRUPT_InterruptManagerHigh+2,fsr2l
  4008  001912  C006  FFFB         	movff	??_INTERRUPT_InterruptManagerHigh+1,pclatu
  4009  001916  C005  FFFA         	movff	??_INTERRUPT_InterruptManagerHigh,pclath
  4010  00191A  924F               	bcf	int$flags,1,c	;clear compiler interrupt flag (level 2)
  4011  00191C  0011               	retfie		f
  4012  00191E                     __end_of_INTERRUPT_InterruptManagerHigh:
  4013                           	callstack 0
  4014                           
  4015 ;; *************** function _TMR1_ISR *****************
  4016 ;; Defined at:
  4017 ;;		line 183 in file "mcc_generated_files/tmr1.c"
  4018 ;; Parameters:    Size  Location     Type
  4019 ;;		None
  4020 ;; Auto vars:     Size  Location     Type
  4021 ;;		None
  4022 ;; Return value:  Size  Location     Type
  4023 ;;                  1    wreg      void 
  4024 ;; Registers used:
  4025 ;;		wreg, status,2, status,0, pclath, tosl, cstack
  4026 ;; Tracked objects:
  4027 ;;		On entry : 0/0
  4028 ;;		On exit  : 0/0
  4029 ;;		Unchanged: 0/0
  4030 ;; Data sizes:     COMRAM   BANK0   BANK1   BANK2   BANK3   BANK4   BANK5   BANK6   BANK7   BANK8   BANK9  BANK10  BANK1
      +1  BANK12  BANK13  BANK14
  4031 ;;      Params:         0       0       0       0       0       0       0       0       0       0       0       0       
      +0       0       0       0
  4032 ;;      Locals:         0       0       0       0       0       0       0       0       0       0       0       0       
      +0       0       0       0
  4033 ;;      Temps:          0       0       0       0       0       0       0       0       0       0       0       0       
      +0       0       0       0
  4034 ;;      Totals:         0       0       0       0       0       0       0       0       0       0       0       0       
      +0       0       0       0
  4035 ;;Total ram usage:        0 bytes
  4036 ;; Hardware stack levels used: 1
  4037 ;; Hardware stack levels required when called: 1
  4038 ;; This function calls:
  4039 ;;		Absolute function
  4040 ;;		_TMR1_DefaultInterruptHandler
  4041 ;;		i2_TMR1_WriteTimer
  4042 ;; This function is called by:
  4043 ;;		_INTERRUPT_InterruptManagerHigh
  4044 ;; This function uses a non-reentrant model
  4045 ;;
  4046                           
  4047                           	psect	text37
  4048  0019B8                     __ptext37:
  4049                           	callstack 0
  4050  0019B8                     _TMR1_ISR:
  4051                           	callstack 21
  4052  0019B8                     
  4053                           ;mcc_generated_files/tmr1.c: 187:     PIR1bits.TMR1IF = 0;
  4054  0019B8  909E               	bcf	158,0,c	;volatile
  4055  0019BA                     
  4056                           ;mcc_generated_files/tmr1.c: 188:     TMR1_WriteTimer(timer1ReloadVal);
  4057  0019BA  C02B  F001         	movff	_timer1ReloadVal,i2TMR1_WriteTimer@timerVal	;volatile
  4058  0019BE  C02C  F002         	movff	_timer1ReloadVal+1,i2TMR1_WriteTimer@timerVal+1	;volatile
  4059  0019C2  EC8A  F00D         	call	i2_TMR1_WriteTimer	;wreg free
  4060  0019C6                     
  4061                           ;mcc_generated_files/tmr1.c: 190:     if(TMR1_InterruptHandler)
  4062  0019C6  5029               	movf	_TMR1_InterruptHandler^0,w,c
  4063  0019C8  102A               	iorwf	(_TMR1_InterruptHandler+1)^0,w,c
  4064  0019CA  B4D8               	btfsc	status,2,c
  4065  0019CC  EFEA  F00C         	goto	i2u172_41
  4066  0019D0  EFEC  F00C         	goto	i2u172_40
  4067  0019D4                     i2u172_41:
  4068  0019D4  EFF9  F00C         	goto	i2l752
  4069  0019D8                     i2u172_40:
  4070  0019D8                     
  4071                           ;mcc_generated_files/tmr1.c: 191:     {;mcc_generated_files/tmr1.c: 192:         TMR1_In
      +                          terruptHandler();
  4072  0019D8  D802               	call	i2u173_48
  4073  0019DA  EFF9  F00C         	goto	i2u173_49
  4074  0019DE                     i2u173_48:
  4075  0019DE  0005               	push	
  4076  0019E0  6EFA               	movwf	pclath,c
  4077  0019E2  5029               	movf	_TMR1_InterruptHandler^0,w,c
  4078  0019E4  6EFD               	movwf	tosl,c
  4079  0019E6  502A               	movf	(_TMR1_InterruptHandler+1)^0,w,c
  4080  0019E8  6EFE               	movwf	tosh,c
  4081  0019EA  50F8               	movf	tblptru,w,c
  4082  0019EC  6EFF               	movwf	tosu,c
  4083  0019EE  50FA               	movf	pclath,w,c
  4084  0019F0  0012               	return		;indir
  4085  0019F2                     i2u173_49:
  4086  0019F2                     i2l752:
  4087  0019F2  0012               	return		;funcret
  4088  0019F4                     __end_of_TMR1_ISR:
  4089                           	callstack 0
  4090                           
  4091 ;; *************** function i2_TMR1_WriteTimer *****************
  4092 ;; Defined at:
  4093 ;;		line 146 in file "mcc_generated_files/tmr1.c"
  4094 ;; Parameters:    Size  Location     Type
  4095 ;;  timerVal        2    0[COMRAM] unsigned short 
  4096 ;; Auto vars:     Size  Location     Type
  4097 ;;		None
  4098 ;; Return value:  Size  Location     Type
  4099 ;;                  1    wreg      void 
  4100 ;; Registers used:
  4101 ;;		wreg, status,2
  4102 ;; Tracked objects:
  4103 ;;		On entry : 0/0
  4104 ;;		On exit  : 0/0
  4105 ;;		Unchanged: 0/0
  4106 ;; Data sizes:     COMRAM   BANK0   BANK1   BANK2   BANK3   BANK4   BANK5   BANK6   BANK7   BANK8   BANK9  BANK10  BANK1
      +1  BANK12  BANK13  BANK14
  4107 ;;      Params:         2       0       0       0       0       0       0       0       0       0       0       0       
      +0       0       0       0
  4108 ;;      Locals:         0       0       0       0       0       0       0       0       0       0       0       0       
      +0       0       0       0
  4109 ;;      Temps:          0       0       0       0       0       0       0       0       0       0       0       0       
      +0       0       0       0
  4110 ;;      Totals:         2       0       0       0       0       0       0       0       0       0       0       0       
      +0       0       0       0
  4111 ;;Total ram usage:        2 bytes
  4112 ;; Hardware stack levels used: 1
  4113 ;; This function calls:
  4114 ;;		Nothing
  4115 ;; This function is called by:
  4116 ;;		_TMR1_ISR
  4117 ;; This function uses a non-reentrant model
  4118 ;;
  4119                           
  4120                           	psect	text38
  4121  001B14                     __ptext38:
  4122                           	callstack 0
  4123  001B14                     i2_TMR1_WriteTimer:
  4124                           	callstack 21
  4125  001B14                     
  4126                           ;mcc_generated_files/tmr1.c: 146: void TMR1_WriteTimer(uint16_t timerVal);mcc_generated_
      +                          files/tmr1.c: 147: {;mcc_generated_files/tmr1.c: 148:     if (T1CONbits.nT1SYNC == 1)
  4127  001B14  A4CD               	btfss	205,2,c	;volatile
  4128  001B16  EF8F  F00D         	goto	i2u169_41
  4129  001B1A  EF91  F00D         	goto	i2u169_40
  4130  001B1E                     i2u169_41:
  4131  001B1E  EF99  F00D         	goto	i2l3466
  4132  001B22                     i2u169_40:
  4133  001B22                     
  4134                           ;mcc_generated_files/tmr1.c: 149:     {;mcc_generated_files/tmr1.c: 151:         T1CONbi
      +                          ts.TMR1ON = 0;
  4135  001B22  90CD               	bcf	205,0,c	;volatile
  4136  001B24                     
  4137                           ;mcc_generated_files/tmr1.c: 154:         TMR1H = (uint8_t)(timerVal >> 8);
  4138  001B24  5002               	movf	(i2TMR1_WriteTimer@timerVal+1)^0,w,c
  4139  001B26  6ECF               	movwf	207,c	;volatile
  4140  001B28                     
  4141                           ;mcc_generated_files/tmr1.c: 155:         TMR1L = (uint8_t)timerVal;
  4142  001B28  C001  FFCE         	movff	i2TMR1_WriteTimer@timerVal,4046	;volatile
  4143  001B2C                     
  4144                           ;mcc_generated_files/tmr1.c: 158:         T1CONbits.TMR1ON =1;
  4145  001B2C  80CD               	bsf	205,0,c	;volatile
  4146                           
  4147                           ;mcc_generated_files/tmr1.c: 159:     }
  4148  001B2E  EF9D  F00D         	goto	i2l739
  4149  001B32                     i2l3466:
  4150                           
  4151                           ;mcc_generated_files/tmr1.c: 161:     {;mcc_generated_files/tmr1.c: 163:         TMR1H =
      +                           (uint8_t)(timerVal >> 8);
  4152  001B32  5002               	movf	(i2TMR1_WriteTimer@timerVal+1)^0,w,c
  4153  001B34  6ECF               	movwf	207,c	;volatile
  4154  001B36                     
  4155                           ;mcc_generated_files/tmr1.c: 164:         TMR1L = (uint8_t)timerVal;
  4156  001B36  C001  FFCE         	movff	i2TMR1_WriteTimer@timerVal,4046	;volatile
  4157  001B3A                     i2l739:
  4158  001B3A  0012               	return		;funcret
  4159  001B3C                     __end_ofi2_TMR1_WriteTimer:
  4160                           	callstack 0
  4161                           
  4162 ;; *************** function _TMR1_DefaultInterruptHandler *****************
  4163 ;; Defined at:
  4164 ;;		line 201 in file "mcc_generated_files/tmr1.c"
  4165 ;; Parameters:    Size  Location     Type
  4166 ;;		None
  4167 ;; Auto vars:     Size  Location     Type
  4168 ;;		None
  4169 ;; Return value:  Size  Location     Type
  4170 ;;                  1    wreg      void 
  4171 ;; Registers used:
  4172 ;;		wreg, status,2, status,0
  4173 ;; Tracked objects:
  4174 ;;		On entry : 0/0
  4175 ;;		On exit  : 0/0
  4176 ;;		Unchanged: 0/0
  4177 ;; Data sizes:     COMRAM   BANK0   BANK1   BANK2   BANK3   BANK4   BANK5   BANK6   BANK7   BANK8   BANK9  BANK10  BANK1
      +1  BANK12  BANK13  BANK14
  4178 ;;      Params:         0       0       0       0       0       0       0       0       0       0       0       0       
      +0       0       0       0
  4179 ;;      Locals:         0       0       0       0       0       0       0       0       0       0       0       0       
      +0       0       0       0
  4180 ;;      Temps:          0       0       0       0       0       0       0       0       0       0       0       0       
      +0       0       0       0
  4181 ;;      Totals:         0       0       0       0       0       0       0       0       0       0       0       0       
      +0       0       0       0
  4182 ;;Total ram usage:        0 bytes
  4183 ;; Hardware stack levels used: 1
  4184 ;; This function calls:
  4185 ;;		Nothing
  4186 ;; This function is called by:
  4187 ;;		_TMR1_Initialize
  4188 ;;		_TMR1_ISR
  4189 ;; This function uses a non-reentrant model
  4190 ;;
  4191                           
  4192                           	psect	text39
  4193  001738                     __ptext39:
  4194                           	callstack 0
  4195  001738                     _TMR1_DefaultInterruptHandler:
  4196                           	callstack 21
  4197  001738                     
  4198                           ;mcc_generated_files/tmr1.c: 205:     if(myState == PLAY)
  4199  001738  0E02               	movlw	2
  4200  00173A  184E               	xorwf	_myState^0,w,c	;volatile
  4201  00173C  A4D8               	btfss	status,2,c
  4202  00173E  EFA3  F00B         	goto	i2u147_41
  4203  001742  EFA5  F00B         	goto	i2u147_40
  4204  001746                     i2u147_41:
  4205  001746  EFE4  F00B         	goto	i2l761
  4206  00174A                     i2u147_40:
  4207  00174A                     
  4208                           ;mcc_generated_files/tmr1.c: 206:     {;mcc_generated_files/tmr1.c: 208:         myPlayF
      +                          lag = ON;
  4209  00174A  0E00               	movlw	0
  4210  00174C  6E4D               	movwf	_myPlayFlag^0,c	;volatile
  4211  00174E                     
  4212                           ;mcc_generated_files/tmr1.c: 209:         if (bufNum == 1)
  4213  00174E  0437               	decf	_bufNum^0,w,c	;volatile
  4214  001750  A4D8               	btfss	status,2,c
  4215  001752  EFAD  F00B         	goto	i2u148_41
  4216  001756  EFAF  F00B         	goto	i2u148_40
  4217  00175A                     i2u148_41:
  4218  00175A  EFC7  F00B         	goto	i2l3360
  4219  00175E                     i2u148_40:
  4220  00175E                     
  4221                           ;mcc_generated_files/tmr1.c: 210:         {;mcc_generated_files/tmr1.c: 212:            
      +                           numOfBytesWritten++;
  4222  00175E  0E01               	movlw	1
  4223  001760  2639               	addwf	_numOfBytesWritten^0,f,c	;volatile
  4224  001762  0E00               	movlw	0
  4225  001764  223A               	addwfc	(_numOfBytesWritten+1)^0,f,c	;volatile
  4226  001766  0E00               	movlw	0
  4227  001768  223B               	addwfc	(_numOfBytesWritten+2)^0,f,c	;volatile
  4228  00176A                     
  4229                           ;mcc_generated_files/tmr1.c: 213:             count++;
  4230  00176A  2A45               	incf	_count^0,f,c	;volatile
  4231  00176C                     
  4232                           ;mcc_generated_files/tmr1.c: 214:             if (count == 128)
  4233  00176C  0E80               	movlw	128
  4234  00176E  1845               	xorwf	_count^0,w,c	;volatile
  4235  001770  A4D8               	btfss	status,2,c
  4236  001772  EFBD  F00B         	goto	i2u149_41
  4237  001776  EFBF  F00B         	goto	i2u149_40
  4238  00177A                     i2u149_41:
  4239  00177A  EFE4  F00B         	goto	i2l761
  4240  00177E                     i2u149_40:
  4241  00177E                     
  4242                           ;mcc_generated_files/tmr1.c: 215:             {;mcc_generated_files/tmr1.c: 216:        
      +                                   count = 0;
  4243  00177E  0E00               	movlw	0
  4244  001780  6E45               	movwf	_count^0,c	;volatile
  4245                           
  4246                           ;mcc_generated_files/tmr1.c: 217:                 bufNum = 2;
  4247  001782  0E02               	movlw	2
  4248  001784  6E37               	movwf	_bufNum^0,c	;volatile
  4249  001786  EFE4  F00B         	goto	i2l761
  4250  00178A                     i2l3358:
  4251                           
  4252                           ;mcc_generated_files/tmr1.c: 218:                 return;
  4253  00178A  EFE4  F00B         	goto	i2l761
  4254  00178E                     i2l3360:
  4255  00178E  0E02               	movlw	2
  4256  001790  1837               	xorwf	_bufNum^0,w,c	;volatile
  4257  001792  A4D8               	btfss	status,2,c
  4258  001794  EFCE  F00B         	goto	i2u150_41
  4259  001798  EFD0  F00B         	goto	i2u150_40
  4260  00179C                     i2u150_41:
  4261  00179C  EFE4  F00B         	goto	i2l761
  4262  0017A0                     i2u150_40:
  4263  0017A0                     
  4264                           ;mcc_generated_files/tmr1.c: 222:             numOfBytesWritten++;
  4265  0017A0  0E01               	movlw	1
  4266  0017A2  2639               	addwf	_numOfBytesWritten^0,f,c	;volatile
  4267  0017A4  0E00               	movlw	0
  4268  0017A6  223A               	addwfc	(_numOfBytesWritten+1)^0,f,c	;volatile
  4269  0017A8  0E00               	movlw	0
  4270  0017AA  223B               	addwfc	(_numOfBytesWritten+2)^0,f,c	;volatile
  4271  0017AC                     
  4272                           ;mcc_generated_files/tmr1.c: 223:             count++;
  4273  0017AC  2A45               	incf	_count^0,f,c	;volatile
  4274  0017AE                     
  4275                           ;mcc_generated_files/tmr1.c: 224:             if (count == 128) {
  4276  0017AE  0E80               	movlw	128
  4277  0017B0  1845               	xorwf	_count^0,w,c	;volatile
  4278  0017B2  A4D8               	btfss	status,2,c
  4279  0017B4  EFDE  F00B         	goto	i2u151_41
  4280  0017B8  EFE0  F00B         	goto	i2u151_40
  4281  0017BC                     i2u151_41:
  4282  0017BC  EFC5  F00B         	goto	i2l3358
  4283  0017C0                     i2u151_40:
  4284  0017C0                     
  4285                           ;mcc_generated_files/tmr1.c: 225:                 count = 0;
  4286  0017C0  0E00               	movlw	0
  4287  0017C2  6E45               	movwf	_count^0,c	;volatile
  4288                           
  4289                           ;mcc_generated_files/tmr1.c: 226:                 bufNum = 1;
  4290  0017C4  0E01               	movlw	1
  4291  0017C6  6E37               	movwf	_bufNum^0,c	;volatile
  4292  0017C8                     i2l761:
  4293  0017C8  0012               	return		;funcret
  4294  0017CA                     __end_of_TMR1_DefaultInterruptHandler:
  4295                           	callstack 0
  4296                           
  4297 ;; *************** function _ADC_ISR *****************
  4298 ;; Defined at:
  4299 ;;		line 180 in file "mcc_generated_files/adc.c"
  4300 ;; Parameters:    Size  Location     Type
  4301 ;;		None
  4302 ;; Auto vars:     Size  Location     Type
  4303 ;;		None
  4304 ;; Return value:  Size  Location     Type
  4305 ;;                  1    wreg      void 
  4306 ;; Registers used:
  4307 ;;		wreg, fsr2l, fsr2h, status,2, status,0, pclath, tosl, cstack
  4308 ;; Tracked objects:
  4309 ;;		On entry : 0/0
  4310 ;;		On exit  : 0/0
  4311 ;;		Unchanged: 0/0
  4312 ;; Data sizes:     COMRAM   BANK0   BANK1   BANK2   BANK3   BANK4   BANK5   BANK6   BANK7   BANK8   BANK9  BANK10  BANK1
      +1  BANK12  BANK13  BANK14
  4313 ;;      Params:         0       0       0       0       0       0       0       0       0       0       0       0       
      +0       0       0       0
  4314 ;;      Locals:         0       0       0       0       0       0       0       0       0       0       0       0       
      +0       0       0       0
  4315 ;;      Temps:          0       0       0       0       0       0       0       0       0       0       0       0       
      +0       0       0       0
  4316 ;;      Totals:         0       0       0       0       0       0       0       0       0       0       0       0       
      +0       0       0       0
  4317 ;;Total ram usage:        0 bytes
  4318 ;; Hardware stack levels used: 1
  4319 ;; Hardware stack levels required when called: 2
  4320 ;; This function calls:
  4321 ;;		Absolute function
  4322 ;;		_ADC_DefaultInterruptHandler
  4323 ;; This function is called by:
  4324 ;;		_INTERRUPT_InterruptManagerHigh
  4325 ;; This function uses a non-reentrant model
  4326 ;;
  4327                           
  4328                           	psect	text40
  4329  001A92                     __ptext40:
  4330                           	callstack 0
  4331  001A92                     _ADC_ISR:
  4332                           	callstack 20
  4333  001A92                     
  4334                           ;mcc_generated_files/adc.c: 183:     PIR1bits.ADIF = 0;
  4335  001A92  9C9E               	bcf	158,6,c	;volatile
  4336  001A94                     
  4337                           ;mcc_generated_files/adc.c: 185:  if(ADC_InterruptHandler)
  4338  001A94  5027               	movf	_ADC_InterruptHandler^0,w,c
  4339  001A96  1028               	iorwf	(_ADC_InterruptHandler+1)^0,w,c
  4340  001A98  B4D8               	btfsc	status,2,c
  4341  001A9A  EF51  F00D         	goto	i2u170_41
  4342  001A9E  EF53  F00D         	goto	i2u170_40
  4343  001AA2                     i2u170_41:
  4344  001AA2  EF60  F00D         	goto	i2l829
  4345  001AA6                     i2u170_40:
  4346  001AA6                     
  4347                           ;mcc_generated_files/adc.c: 186:     {;mcc_generated_files/adc.c: 187:         ADC_Inter
      +                          ruptHandler();
  4348  001AA6  D802               	call	i2u171_48
  4349  001AA8  EF60  F00D         	goto	i2u171_49
  4350  001AAC                     i2u171_48:
  4351  001AAC  0005               	push	
  4352  001AAE  6EFA               	movwf	pclath,c
  4353  001AB0  5027               	movf	_ADC_InterruptHandler^0,w,c
  4354  001AB2  6EFD               	movwf	tosl,c
  4355  001AB4  5028               	movf	(_ADC_InterruptHandler+1)^0,w,c
  4356  001AB6  6EFE               	movwf	tosh,c
  4357  001AB8  50F8               	movf	tblptru,w,c
  4358  001ABA  6EFF               	movwf	tosu,c
  4359  001ABC  50FA               	movf	pclath,w,c
  4360  001ABE  0012               	return		;indir
  4361  001AC0                     i2u171_49:
  4362  001AC0                     i2l829:
  4363  001AC0  0012               	return		;funcret
  4364  001AC2                     __end_of_ADC_ISR:
  4365                           	callstack 0
  4366                           
  4367 ;; *************** function _ADC_DefaultInterruptHandler *****************
  4368 ;; Defined at:
  4369 ;;		line 195 in file "mcc_generated_files/adc.c"
  4370 ;; Parameters:    Size  Location     Type
  4371 ;;		None
  4372 ;; Auto vars:     Size  Location     Type
  4373 ;;		None
  4374 ;; Return value:  Size  Location     Type
  4375 ;;                  1    wreg      void 
  4376 ;; Registers used:
  4377 ;;		wreg, fsr2l, fsr2h, status,2, status,0, cstack
  4378 ;; Tracked objects:
  4379 ;;		On entry : 0/0
  4380 ;;		On exit  : 0/0
  4381 ;;		Unchanged: 0/0
  4382 ;; Data sizes:     COMRAM   BANK0   BANK1   BANK2   BANK3   BANK4   BANK5   BANK6   BANK7   BANK8   BANK9  BANK10  BANK1
      +1  BANK12  BANK13  BANK14
  4383 ;;      Params:         0       0       0       0       0       0       0       0       0       0       0       0       
      +0       0       0       0
  4384 ;;      Locals:         0       0       0       0       0       0       0       0       0       0       0       0       
      +0       0       0       0
  4385 ;;      Temps:          0       0       0       0       0       0       0       0       0       0       0       0       
      +0       0       0       0
  4386 ;;      Totals:         0       0       0       0       0       0       0       0       0       0       0       0       
      +0       0       0       0
  4387 ;;Total ram usage:        0 bytes
  4388 ;; Hardware stack levels used: 1
  4389 ;; Hardware stack levels required when called: 1
  4390 ;; This function calls:
  4391 ;;		_ADC_GetConversionResult
  4392 ;; This function is called by:
  4393 ;;		_ADC_Initialize
  4394 ;;		_ADC_ISR
  4395 ;; This function uses a non-reentrant model
  4396 ;;
  4397                           
  4398                           	psect	text41
  4399  001688                     __ptext41:
  4400                           	callstack 0
  4401  001688                     _ADC_DefaultInterruptHandler:
  4402                           	callstack 20
  4403  001688                     
  4404                           ;mcc_generated_files/adc.c: 197:     myAdcValue.value = ADC_GetConversionResult();
  4405  001688  EC1A  F00E         	call	_ADC_GetConversionResult	;wreg free
  4406  00168C  C001  F03E         	movff	?_ADC_GetConversionResult,_myAdcValue	;volatile
  4407  001690  C002  F03F         	movff	?_ADC_GetConversionResult+1,_myAdcValue+1	;volatile
  4408  001694                     
  4409                           ;mcc_generated_files/adc.c: 198:     if (myState == RECORD)
  4410  001694  044E               	decf	_myState^0,w,c	;volatile
  4411  001696  A4D8               	btfss	status,2,c
  4412  001698  EF50  F00B         	goto	i2u152_41
  4413  00169C  EF52  F00B         	goto	i2u152_40
  4414  0016A0                     i2u152_41:
  4415  0016A0  EF9B  F00B         	goto	i2l838
  4416  0016A4                     i2u152_40:
  4417  0016A4                     
  4418                           ;mcc_generated_files/adc.c: 199:     {;mcc_generated_files/adc.c: 201:         if (bufNu
      +                          mber == 1) {
  4419  0016A4  0444               	decf	_bufNumber^0,w,c	;volatile
  4420  0016A6  A4D8               	btfss	status,2,c
  4421  0016A8  EF58  F00B         	goto	i2u153_41
  4422  0016AC  EF5A  F00B         	goto	i2u153_40
  4423  0016B0                     i2u153_41:
  4424  0016B0  EF78  F00B         	goto	i2l3388
  4425  0016B4                     i2u153_40:
  4426  0016B4                     
  4427                           ;mcc_generated_files/adc.c: 203:             readBufOne[count++] = myAdcValue.highByte;
  4428  0016B4  0E80               	movlw	low _readBufOne
  4429  0016B6  2445               	addwf	_count^0,w,c	;volatile
  4430  0016B8  6ED9               	movwf	fsr2l,c
  4431  0016BA  6ADA               	clrf	fsr2h,c
  4432  0016BC  0E01               	movlw	high _readBufOne
  4433  0016BE  22DA               	addwfc	fsr2h,f,c
  4434  0016C0  C03F  FFDF         	movff	_myAdcValue+1,indf2	;volatile
  4435  0016C4  2A45               	incf	_count^0,f,c	;volatile
  4436  0016C6                     
  4437                           ;mcc_generated_files/adc.c: 204:             if (count == 128)
  4438  0016C6  0E80               	movlw	128
  4439  0016C8  1845               	xorwf	_count^0,w,c	;volatile
  4440  0016CA  A4D8               	btfss	status,2,c
  4441  0016CC  EF6A  F00B         	goto	i2u154_41
  4442  0016D0  EF6C  F00B         	goto	i2u154_40
  4443  0016D4                     i2u154_41:
  4444  0016D4  EF9B  F00B         	goto	i2l838
  4445  0016D8                     i2u154_40:
  4446  0016D8                     
  4447                           ;mcc_generated_files/adc.c: 205:             {;mcc_generated_files/adc.c: 206:          
      +                                 bufNumber = 2;
  4448  0016D8  0E02               	movlw	2
  4449  0016DA  6E44               	movwf	_bufNumber^0,c	;volatile
  4450                           
  4451                           ;mcc_generated_files/adc.c: 207:                 count = 0;
  4452  0016DC  0E00               	movlw	0
  4453  0016DE  6E45               	movwf	_count^0,c	;volatile
  4454                           
  4455                           ;mcc_generated_files/adc.c: 208:                 readTwoIsFull = 0;
  4456  0016E0  0E00               	movlw	0
  4457  0016E2  6E43               	movwf	_readTwoIsFull^0,c	;volatile
  4458                           
  4459                           ;mcc_generated_files/adc.c: 209:                 readOneIsFull = 1;
  4460  0016E4  0E01               	movlw	1
  4461  0016E6  6E42               	movwf	_readOneIsFull^0,c	;volatile
  4462  0016E8  EF9B  F00B         	goto	i2l838
  4463  0016EC                     i2l3386:
  4464                           
  4465                           ;mcc_generated_files/adc.c: 210:                 return;
  4466  0016EC  EF9B  F00B         	goto	i2l838
  4467  0016F0                     i2l3388:
  4468  0016F0  0E02               	movlw	2
  4469  0016F2  1844               	xorwf	_bufNumber^0,w,c	;volatile
  4470  0016F4  A4D8               	btfss	status,2,c
  4471  0016F6  EF7F  F00B         	goto	i2u155_41
  4472  0016FA  EF81  F00B         	goto	i2u155_40
  4473  0016FE                     i2u155_41:
  4474  0016FE  EF9B  F00B         	goto	i2l838
  4475  001702                     i2u155_40:
  4476  001702                     
  4477                           ;mcc_generated_files/adc.c: 213:             readBufTwo[count++] = myAdcValue.highByte;
  4478  001702  0E80               	movlw	low _readBufTwo
  4479  001704  2445               	addwf	_count^0,w,c	;volatile
  4480  001706  6ED9               	movwf	fsr2l,c
  4481  001708  6ADA               	clrf	fsr2h,c
  4482  00170A  0E02               	movlw	high _readBufTwo
  4483  00170C  22DA               	addwfc	fsr2h,f,c
  4484  00170E  C03F  FFDF         	movff	_myAdcValue+1,indf2	;volatile
  4485  001712  2A45               	incf	_count^0,f,c	;volatile
  4486  001714                     
  4487                           ;mcc_generated_files/adc.c: 214:             if (count == 128)
  4488  001714  0E80               	movlw	128
  4489  001716  1845               	xorwf	_count^0,w,c	;volatile
  4490  001718  A4D8               	btfss	status,2,c
  4491  00171A  EF91  F00B         	goto	i2u156_41
  4492  00171E  EF93  F00B         	goto	i2u156_40
  4493  001722                     i2u156_41:
  4494  001722  EF76  F00B         	goto	i2l3386
  4495  001726                     i2u156_40:
  4496  001726                     
  4497                           ;mcc_generated_files/adc.c: 215:             {;mcc_generated_files/adc.c: 216:          
      +                                 bufNumber = 1;
  4498  001726  0E01               	movlw	1
  4499  001728  6E44               	movwf	_bufNumber^0,c	;volatile
  4500                           
  4501                           ;mcc_generated_files/adc.c: 217:                 count = 0;
  4502  00172A  0E00               	movlw	0
  4503  00172C  6E45               	movwf	_count^0,c	;volatile
  4504                           
  4505                           ;mcc_generated_files/adc.c: 218:                 readOneIsFull = 0;
  4506  00172E  0E00               	movlw	0
  4507  001730  6E42               	movwf	_readOneIsFull^0,c	;volatile
  4508                           
  4509                           ;mcc_generated_files/adc.c: 219:                 readTwoIsFull = 1;
  4510  001732  0E01               	movlw	1
  4511  001734  6E43               	movwf	_readTwoIsFull^0,c	;volatile
  4512  001736                     i2l838:
  4513  001736  0012               	return		;funcret
  4514  001738                     __end_of_ADC_DefaultInterruptHandler:
  4515                           	callstack 0
  4516                           
  4517 ;; *************** function _ADC_GetConversionResult *****************
  4518 ;; Defined at:
  4519 ;;		line 148 in file "mcc_generated_files/adc.c"
  4520 ;; Parameters:    Size  Location     Type
  4521 ;;		None
  4522 ;; Auto vars:     Size  Location     Type
  4523 ;;		None
  4524 ;; Return value:  Size  Location     Type
  4525 ;;                  2    0[COMRAM] unsigned short 
  4526 ;; Registers used:
  4527 ;;		wreg, status,2, status,0
  4528 ;; Tracked objects:
  4529 ;;		On entry : 0/0
  4530 ;;		On exit  : 0/0
  4531 ;;		Unchanged: 0/0
  4532 ;; Data sizes:     COMRAM   BANK0   BANK1   BANK2   BANK3   BANK4   BANK5   BANK6   BANK7   BANK8   BANK9  BANK10  BANK1
      +1  BANK12  BANK13  BANK14
  4533 ;;      Params:         2       0       0       0       0       0       0       0       0       0       0       0       
      +0       0       0       0
  4534 ;;      Locals:         0       0       0       0       0       0       0       0       0       0       0       0       
      +0       0       0       0
  4535 ;;      Temps:          2       0       0       0       0       0       0       0       0       0       0       0       
      +0       0       0       0
  4536 ;;      Totals:         4       0       0       0       0       0       0       0       0       0       0       0       
      +0       0       0       0
  4537 ;;Total ram usage:        4 bytes
  4538 ;; Hardware stack levels used: 1
  4539 ;; This function calls:
  4540 ;;		Nothing
  4541 ;; This function is called by:
  4542 ;;		_ADC_DefaultInterruptHandler
  4543 ;; This function uses a non-reentrant model
  4544 ;;
  4545                           
  4546                           	psect	text42
  4547  001C34                     __ptext42:
  4548                           	callstack 0
  4549  001C34                     _ADC_GetConversionResult:
  4550                           	callstack 20
  4551  001C34                     
  4552                           ;mcc_generated_files/adc.c: 151:     return ((adc_result_t)((ADRESH << 8) + ADRESL));
  4553  001C34  50C4               	movf	196,w,c	;volatile
  4554  001C36  6E04               	movwf	(??_ADC_GetConversionResult+1)^0,c
  4555  001C38  6A03               	clrf	??_ADC_GetConversionResult^0,c
  4556  001C3A  50C3               	movf	195,w,c	;volatile
  4557  001C3C  2403               	addwf	??_ADC_GetConversionResult^0,w,c
  4558  001C3E  6E01               	movwf	?_ADC_GetConversionResult^0,c
  4559  001C40  0E00               	movlw	0
  4560  001C42  2004               	addwfc	(??_ADC_GetConversionResult+1)^0,w,c
  4561  001C44  6E02               	movwf	(?_ADC_GetConversionResult+1)^0,c
  4562  001C46  0012               	return		;funcret
  4563  001C48                     __end_of_ADC_GetConversionResult:
  4564                           	callstack 0
  4565                           
  4566                           	psect	text43
  4567  000000                     __ptext43:
  4568                           	callstack 0
  4569  000000                     
  4570                           	psect	rparam
  4571  0000                     
  4572                           	psect	temp
  4573  00004F                     btemp:
  4574                           	callstack 0
  4575  00004F                     	ds	1
  4576  0000                     int$flags	set	btemp
  4577  0000                     wtemp8	set	btemp+1
  4578  0000                     ttemp5	set	btemp+1
  4579  0000                     ttemp6	set	btemp+4
  4580  0000                     ttemp7	set	btemp+8
  4581                           
  4582                           	psect	idloc
  4583                           
  4584                           ;Config register IDLOC0 @ 0x200000
  4585                           ;	unspecified, using default values
  4586  200000                     	org	2097152
  4587  200000  FF                 	db	255
  4588                           
  4589                           ;Config register IDLOC1 @ 0x200001
  4590                           ;	unspecified, using default values
  4591  200001                     	org	2097153
  4592  200001  FF                 	db	255
  4593                           
  4594                           ;Config register IDLOC2 @ 0x200002
  4595                           ;	unspecified, using default values
  4596  200002                     	org	2097154
  4597  200002  FF                 	db	255
  4598                           
  4599                           ;Config register IDLOC3 @ 0x200003
  4600                           ;	unspecified, using default values
  4601  200003                     	org	2097155
  4602  200003  FF                 	db	255
  4603                           
  4604                           ;Config register IDLOC4 @ 0x200004
  4605                           ;	unspecified, using default values
  4606  200004                     	org	2097156
  4607  200004  FF                 	db	255
  4608                           
  4609                           ;Config register IDLOC5 @ 0x200005
  4610                           ;	unspecified, using default values
  4611  200005                     	org	2097157
  4612  200005  FF                 	db	255
  4613                           
  4614                           ;Config register IDLOC6 @ 0x200006
  4615                           ;	unspecified, using default values
  4616  200006                     	org	2097158
  4617  200006  FF                 	db	255
  4618                           
  4619                           ;Config register IDLOC7 @ 0x200007
  4620                           ;	unspecified, using default values
  4621  200007                     	org	2097159
  4622  200007  FF                 	db	255
  4623                           
  4624                           	psect	config
  4625                           
  4626                           ;Config register CONFIG1L @ 0x300000
  4627                           ;	VREG Sleep Enable bit
  4628                           ;	RETEN = OFF, Ultra low-power regulator is Disabled (Controlled by REGSLP bit)
  4629                           ;	LF-INTOSC Low-power Enable bit
  4630                           ;	INTOSCSEL = HIGH, LF-INTOSC in High-power mode during Sleep
  4631                           ;	SOSC Power Selection and mode Configuration bits
  4632                           ;	SOSCSEL = DIG, Digital (SCLKI) mode
  4633                           ;	Extended Instruction Set
  4634                           ;	XINST = OFF, Disabled
  4635  300000                     	org	3145728
  4636  300000  15                 	db	21
  4637                           
  4638                           ;Config register CONFIG1H @ 0x300001
  4639                           ;	Oscillator
  4640                           ;	FOSC = HS1, HS oscillator (Medium power, 4 MHz - 16 MHz)
  4641                           ;	PLL x4 Enable bit
  4642                           ;	PLLCFG = ON, Enabled
  4643                           ;	Fail-Safe Clock Monitor
  4644                           ;	FCMEN = OFF, Disabled
  4645                           ;	Internal External Oscillator Switch Over Mode
  4646                           ;	IESO = OFF, Disabled
  4647  300001                     	org	3145729
  4648  300001  13                 	db	19
  4649                           
  4650                           ;Config register CONFIG2L @ 0x300002
  4651                           ;	Power Up Timer
  4652                           ;	PWRTEN = OFF, Disabled
  4653                           ;	Brown Out Detect
  4654                           ;	BOREN = SBORDIS, Enabled in hardware, SBOREN disabled
  4655                           ;	Brown-out Reset Voltage bits
  4656                           ;	BORV = 3, 1.8V
  4657                           ;	BORMV Power level
  4658                           ;	BORPWR = ZPBORMV, ZPBORMV instead of BORMV is selected
  4659  300002                     	org	3145730
  4660  300002  7F                 	db	127
  4661                           
  4662                           ;Config register CONFIG2H @ 0x300003
  4663                           ;	Watchdog Timer
  4664                           ;	WDTEN = OFF, WDT disabled in hardware; SWDTEN bit disabled
  4665                           ;	Watchdog Postscaler
  4666                           ;	WDTPS = 1048576, 1:1048576
  4667  300003                     	org	3145731
  4668  300003  7C                 	db	124
  4669                           
  4670                           ; Padding undefined space
  4671  300004                     	org	3145732
  4672  300004  FF                 	db	255
  4673                           
  4674                           ;Config register CONFIG3H @ 0x300005
  4675                           ;	ECAN Mux bit
  4676                           ;	CANMX = PORTB, ECAN TX and RX pins are located on RB2 and RB3, respectively
  4677                           ;	MSSP address masking
  4678                           ;	MSSPMSK = MSK7, 7 Bit address masking mode
  4679                           ;	Master Clear Enable
  4680                           ;	MCLRE = ON, MCLR Enabled, RE3 Disabled
  4681  300005                     	org	3145733
  4682  300005  89                 	db	137
  4683                           
  4684                           ;Config register CONFIG4L @ 0x300006
  4685                           ;	Stack Overflow Reset
  4686                           ;	STVREN = ON, Enabled
  4687                           ;	Boot Block Size
  4688                           ;	BBSIZ = BB2K, 2K word Boot Block size
  4689  300006                     	org	3145734
  4690  300006  91                 	db	145
  4691                           
  4692                           ; Padding undefined space
  4693  300007                     	org	3145735
  4694  300007  FF                 	db	255
  4695                           
  4696                           ;Config register CONFIG5L @ 0x300008
  4697                           ;	Code Protect 00800-01FFF
  4698                           ;	CP0 = OFF, Disabled
  4699                           ;	Code Protect 02000-03FFF
  4700                           ;	CP1 = OFF, Disabled
  4701                           ;	Code Protect 04000-05FFF
  4702                           ;	CP2 = OFF, Disabled
  4703                           ;	Code Protect 06000-07FFF
  4704                           ;	CP3 = OFF, Disabled
  4705  300008                     	org	3145736
  4706  300008  0F                 	db	15
  4707                           
  4708                           ;Config register CONFIG5H @ 0x300009
  4709                           ;	Code Protect Boot
  4710                           ;	CPB = OFF, Disabled
  4711                           ;	Data EE Read Protect
  4712                           ;	CPD = OFF, Disabled
  4713  300009                     	org	3145737
  4714  300009  C0                 	db	192
  4715                           
  4716                           ;Config register CONFIG6L @ 0x30000A
  4717                           ;	Table Write Protect 00800-01FFF
  4718                           ;	WRT0 = OFF, Disabled
  4719                           ;	Table Write Protect 02000-03FFF
  4720                           ;	WRT1 = OFF, Disabled
  4721                           ;	Table Write Protect 04000-05FFF
  4722                           ;	WRT2 = OFF, Disabled
  4723                           ;	Table Write Protect 06000-07FFF
  4724                           ;	WRT3 = OFF, Disabled
  4725  30000A                     	org	3145738
  4726  30000A  0F                 	db	15
  4727                           
  4728                           ;Config register CONFIG6H @ 0x30000B
  4729                           ;	Config. Write Protect
  4730                           ;	WRTC = OFF, Disabled
  4731                           ;	Table Write Protect Boot
  4732                           ;	WRTB = OFF, Disabled
  4733                           ;	Data EE Write Protect
  4734                           ;	WRTD = OFF, Disabled
  4735  30000B                     	org	3145739
  4736  30000B  E0                 	db	224
  4737                           
  4738                           ;Config register CONFIG7L @ 0x30000C
  4739                           ;	Table Read Protect 00800-01FFF
  4740                           ;	EBTR0 = OFF, Disabled
  4741                           ;	Table Read Protect 02000-03FFF
  4742                           ;	EBTR1 = OFF, Disabled
  4743                           ;	Table Read Protect 04000-05FFF
  4744                           ;	EBTR2 = OFF, Disabled
  4745                           ;	Table Read Protect 06000-07FFF
  4746                           ;	EBTR3 = OFF, Disabled
  4747  30000C                     	org	3145740
  4748  30000C  0F                 	db	15
  4749                           
  4750                           ;Config register CONFIG7H @ 0x30000D
  4751                           ;	Table Read Protect Boot
  4752                           ;	EBTRB = OFF, Disabled
  4753  30000D                     	org	3145741
  4754  30000D  40                 	db	64
  4755                           tosu	equ	0xFFF
  4756                           tosh	equ	0xFFE
  4757                           tosl	equ	0xFFD
  4758                           stkptr	equ	0xFFC
  4759                           pclatu	equ	0xFFB
  4760                           pclath	equ	0xFFA
  4761                           pcl	equ	0xFF9
  4762                           tblptru	equ	0xFF8
  4763                           tblptrh	equ	0xFF7
  4764                           tblptrl	equ	0xFF6
  4765                           tablat	equ	0xFF5
  4766                           prodh	equ	0xFF4
  4767                           prodl	equ	0xFF3
  4768                           indf0	equ	0xFEF
  4769                           postinc0	equ	0xFEE
  4770                           postdec0	equ	0xFED
  4771                           preinc0	equ	0xFEC
  4772                           plusw0	equ	0xFEB
  4773                           fsr0h	equ	0xFEA
  4774                           fsr0l	equ	0xFE9
  4775                           wreg	equ	0xFE8
  4776                           indf1	equ	0xFE7
  4777                           postinc1	equ	0xFE6
  4778                           postdec1	equ	0xFE5
  4779                           preinc1	equ	0xFE4
  4780                           plusw1	equ	0xFE3
  4781                           fsr1h	equ	0xFE2
  4782                           fsr1l	equ	0xFE1
  4783                           bsr	equ	0xFE0
  4784                           indf2	equ	0xFDF
  4785                           postinc2	equ	0xFDE
  4786                           postdec2	equ	0xFDD
  4787                           preinc2	equ	0xFDC
  4788                           plusw2	equ	0xFDB
  4789                           fsr2h	equ	0xFDA
  4790                           fsr2l	equ	0xFD9
  4791                           status	equ	0xFD8

Data Sizes:
    Strings     5
    Constant    32
    Data        3
    BSS         759
    Persistent  20
    Stack       0

Auto Spaces:
    Space          Size  Autos    Used
    COMRAM           94     36      78
    BANK0           160      2     102
    BANK1           256      0     256
    BANK2           256      0     256
    BANK3           256      0     128
    BANK4           256      0       0
    BANK5           256      0       0
    BANK6           256      0       0
    BANK7           256      0       0
    BANK8           256      0       0
    BANK9           256      0       0
    BANK10          256      0       0
    BANK11          256      0       0
    BANK12          256      0       0
    BANK13          256      0       0
    BANK14           65      0       0

Pointer List with Targets:

    I2C_Read1ByteRegister@returnValue.data	PTR unsigned char  size(2) Largest target is 0

    I2C_Read2ByteRegister@returnValue.data	PTR unsigned char  size(2) Largest target is 0

    I2C_Write1ByteRegister@data.data	PTR unsigned char  size(2) Largest target is 0

    I2C_Write2ByteRegister@data.data	PTR unsigned char  size(2) Largest target is 0

    I2C_DO_TX$3266$0	PTR void  size(2) Largest target is 5
		 -> I2C_ReadDataBlock@bufferBlock(COMRAM[4]), I2C_Write2ByteRegister@data(COMRAM[2]), I2C_Write1ByteRegister@data(COMRAM[1]), I2C_Read2ByteRegister@returnValue(COMRAM[2]), 
		 -> NULL(NULL[0]), I2C_Read1ByteRegister@returnValue(COMRAM[1]), 

    I2C_DO_RX$3272$0	PTR void  size(2) Largest target is 5
		 -> I2C_ReadDataBlock@bufferBlock(COMRAM[4]), I2C_Write2ByteRegister@data(COMRAM[2]), I2C_Write1ByteRegister@data(COMRAM[1]), I2C_Read2ByteRegister@returnValue(COMRAM[2]), 
		 -> NULL(NULL[0]), I2C_Read1ByteRegister@returnValue(COMRAM[1]), 

    I2C_DO_TX_EMPTY$3278$0	PTR void  size(2) Largest target is 5
		 -> I2C_ReadDataBlock@bufferBlock(COMRAM[4]), I2C_Write2ByteRegister@data(COMRAM[2]), I2C_Write1ByteRegister@data(COMRAM[1]), I2C_Read2ByteRegister@returnValue(COMRAM[2]), 
		 -> NULL(NULL[0]), I2C_Read1ByteRegister@returnValue(COMRAM[1]), 

    I2C_DO_RX_EMPTY$3284$0	PTR void  size(2) Largest target is 5
		 -> I2C_ReadDataBlock@bufferBlock(COMRAM[4]), I2C_Write2ByteRegister@data(COMRAM[2]), I2C_Write1ByteRegister@data(COMRAM[1]), I2C_Read2ByteRegister@returnValue(COMRAM[2]), 
		 -> NULL(NULL[0]), I2C_Read1ByteRegister@returnValue(COMRAM[1]), 

    cb$0	PTR void  size(2) Largest target is 5
		 -> I2C_ReadDataBlock@bufferBlock(COMRAM[4]), I2C_Write2ByteRegister@data(COMRAM[2]), I2C_Write1ByteRegister@data(COMRAM[1]), I2C_Read2ByteRegister@returnValue(COMRAM[2]), 
		 -> NULL(NULL[0]), I2C_Read1ByteRegister@returnValue(COMRAM[1]), 

    Absolute function$0	PTR void  size(2) Largest target is 5
		 -> I2C_ReadDataBlock@bufferBlock(COMRAM[4]), I2C_Write2ByteRegister@data(COMRAM[2]), I2C_Write1ByteRegister@data(COMRAM[1]), I2C_Read2ByteRegister@returnValue(COMRAM[2]), 
		 -> NULL(NULL[0]), I2C_Read1ByteRegister@returnValue(COMRAM[1]), 

    cb$0	PTR void  size(2) Largest target is 5
		 -> I2C_ReadDataBlock@bufferBlock(COMRAM[4]), I2C_Write2ByteRegister@data(COMRAM[2]), I2C_Write1ByteRegister@data(COMRAM[1]), I2C_Read2ByteRegister@returnValue(COMRAM[2]), 
		 -> NULL(NULL[0]), I2C_Read1ByteRegister@returnValue(COMRAM[1]), 

    vfprintf$2	PTR PTR void  size(2) Largest target is 2
		 -> sprintf@ap(COMRAM[2]), 

    vfprintf$1	PTR const unsigned char  size(2) Largest target is 5
		 -> STR_1(CODE[5]), 

    vfprintf$0	PTR struct _IO_FILE size(2) Largest target is 7
		 -> sprintf@f(COMRAM[6]), 

    S942$0$0	PTR void  size(2) Largest target is 5
		 -> I2C_ReadDataBlock@bufferBlock(COMRAM[4]), I2C_Write2ByteRegister@data(COMRAM[2]), I2C_Write1ByteRegister@data(COMRAM[1]), I2C_Read2ByteRegister@returnValue(COMRAM[2]), 
		 -> NULL(NULL[0]), I2C_Read1ByteRegister@returnValue(COMRAM[1]), 

    S2914_IO_FILE$buffer	PTR unsigned char  size(2) Largest target is 20
		 -> i2c_scanBus@eish(COMRAM[20]), 

    f.buffer	PTR unsigned char  size(2) Largest target is 20
		 -> i2c_scanBus@eish(COMRAM[20]), 

    EEPROM_ReadPg@ptr	PTR unsigned char  size(2) Largest target is 128
		 -> readBufTwo(BANK2[128]), readBufOne(BANK1[128]), 

    EEPROM_WritePg@ptr	PTR unsigned char  size(2) Largest target is 128
		 -> readBufTwo(BANK2[128]), readBufOne(BANK1[128]), 

    sp__EEPROM_gets	PTR unsigned char  size(2) Largest target is 0

    sp__EEPROM_ReadPg	PTR unsigned char  size(2) Largest target is 128
		 -> readBufTwo(BANK2[128]), readBufOne(BANK1[128]), NULL(NULL[0]), 

    ADC_SetInterruptHandler@InterruptHandler	PTR FTN()void  size(2) Largest target is 1
		 -> ADC_DefaultInterruptHandler(), 

    ADC_InterruptHandler	PTR FTN()void  size(2) Largest target is 1
		 -> ADC_DefaultInterruptHandler(), Absolute function(), 

    TMR1_SetInterruptHandler@InterruptHandler	PTR FTN()void  size(2) Largest target is 1
		 -> TMR1_DefaultInterruptHandler(), 

    TMR1_InterruptHandler	PTR FTN()void  size(2) Largest target is 1
		 -> TMR1_DefaultInterruptHandler(), Absolute function(), 

    S942$data_ptr	PTR unsigned char  size(2) Largest target is 5
		 -> I2C_ReadDataBlock@reg(COMRAM[1]), I2C_ReadDataBlock@bufferBlock(COMRAM[4]), I2C_Write2ByteRegister@reg(COMRAM[1]), I2C_Write2ByteRegister@data(COMRAM[2]), 
		 -> I2C_Write1ByteRegister@reg(COMRAM[1]), I2C_Write1ByteRegister@data(COMRAM[1]), I2C_Read2ByteRegister@reg(COMRAM[1]), I2C_Read2ByteRegister@returnValue(COMRAM[2]), 
		 -> NULL(NULL[0]), I2C_Read1ByteRegister@reg(COMRAM[1]), I2C_Read1ByteRegister@returnValue(COMRAM[1]), 

    I2C_Status.data_ptr	PTR unsigned char  size(2) Largest target is 5
		 -> I2C_ReadDataBlock@reg(COMRAM[1]), I2C_ReadDataBlock@bufferBlock(COMRAM[4]), I2C_Write2ByteRegister@reg(COMRAM[1]), I2C_Write2ByteRegister@data(COMRAM[2]), 
		 -> I2C_Write1ByteRegister@reg(COMRAM[1]), I2C_Write1ByteRegister@data(COMRAM[1]), I2C_Read2ByteRegister@reg(COMRAM[1]), I2C_Read2ByteRegister@returnValue(COMRAM[2]), 
		 -> NULL(NULL[0]), I2C_Read1ByteRegister@reg(COMRAM[1]), I2C_Read1ByteRegister@returnValue(COMRAM[1]), 

    S942$callbackPayload	PTR void [6] size(2) Largest target is 5
		 -> I2C_ReadDataBlock@bufferBlock(COMRAM[4]), I2C_Write2ByteRegister@data(COMRAM[2]), I2C_Write1ByteRegister@data(COMRAM[1]), I2C_Read2ByteRegister@returnValue(COMRAM[2]), 
		 -> NULL(NULL[0]), I2C_Read1ByteRegister@returnValue(COMRAM[1]), 

    I2C_Status.callbackPayload	PTR void [6] size(2) Largest target is 5
		 -> I2C_ReadDataBlock@bufferBlock(COMRAM[4]), I2C_Write2ByteRegister@data(COMRAM[2]), I2C_Write1ByteRegister@data(COMRAM[1]), I2C_Read2ByteRegister@returnValue(COMRAM[2]), 
		 -> NULL(NULL[0]), I2C_Read1ByteRegister@returnValue(COMRAM[1]), 

    S942$callbackTable	PTR FTN(PTR void ,)enum E360[6] size(2) Largest target is 1
		 -> I2C_CallbackReturnReset(), I2C_CallbackReturnStop(), Absolute function(), rdBlkRegCompleteHandler(), 
		 -> wr2RegCompleteHandler(), wr1RegCompleteHandler(), rd2RegCompleteHandler(), rd1RegCompleteHandler(), 

    I2C_Status.callbackTable	PTR FTN(PTR void ,)enum E360[6] size(2) Largest target is 1
		 -> I2C_CallbackReturnReset(), I2C_CallbackReturnStop(), Absolute function(), rdBlkRegCompleteHandler(), 
		 -> wr2RegCompleteHandler(), wr1RegCompleteHandler(), rd2RegCompleteHandler(), rd1RegCompleteHandler(), 

    i2c_fsmStateTable	const PTR FTN()enum E12776[16] size(2) Largest target is 1
		 -> I2C_DO_ADDRESS_NACK(), I2C_DO_RESET(), I2C_DO_RX_NACK_RESTART(), I2C_DO_RX_NACK_STOP(), 
		 -> I2C_DO_RX_ACK(), I2C_DO_SEND_STOP(), I2C_DO_SEND_RESTART(), I2C_DO_SEND_RESTART_WRITE(), 
		 -> I2C_DO_SEND_RESTART_READ(), I2C_DO_TX_EMPTY(), I2C_DO_RCEN(), I2C_DO_RX(), 
		 -> I2C_DO_TX(), I2C_DO_SEND_ADR_WRITE(), I2C_DO_SEND_ADR_READ(), I2C_DO_IDLE(), 

    EUSART1_SetRxInterruptHandler@interruptHandler	PTR FTN()void  size(2) Largest target is 1
		 -> EUSART1_Receive_ISR(), 

    EUSART1_SetTxInterruptHandler@interruptHandler	PTR FTN()void  size(2) Largest target is 1
		 -> EUSART1_Transmit_ISR(), 

    EUSART1_SetErrorHandler@interruptHandler	PTR FTN()void  size(2) Largest target is 1
		 -> EUSART1_DefaultErrorHandler(), 

    EUSART1_SetOverrunErrorHandler@interruptHandler	PTR FTN()void  size(2) Largest target is 1
		 -> EUSART1_DefaultOverrunErrorHandler(), 

    EUSART1_SetFramingErrorHandler@interruptHandler	PTR FTN()void  size(2) Largest target is 1
		 -> EUSART1_DefaultFramingErrorHandler(), 

    EUSART1_ErrorHandler	PTR FTN()void  size(2) Largest target is 1
		 -> Absolute function(), EUSART1_DefaultErrorHandler(), 

    EUSART1_OverrunErrorHandler	PTR FTN()void  size(2) Largest target is 1
		 -> Absolute function(), EUSART1_DefaultOverrunErrorHandler(), 

    EUSART1_FramingErrorHandler	PTR FTN()void  size(2) Largest target is 1
		 -> Absolute function(), EUSART1_DefaultFramingErrorHandler(), 

    EUSART1_RxDefaultInterruptHandler	PTR FTN()void  size(2) Largest target is 1
		 -> Absolute function(), EUSART1_Receive_ISR(), 

    EUSART1_TxDefaultInterruptHandler	PTR FTN()void  size(2) Largest target is 1
		 -> Absolute function(), EUSART1_Transmit_ISR(), 

    rdBlkRegCompleteHandler@ptr.data	PTR unsigned char  size(2) Largest target is 0

    S96$data	PTR unsigned char  size(2) Largest target is 0

    bufferBlock.data	PTR unsigned char  size(2) Largest target is 0


Critical Paths under _main in COMRAM

    _main->_I2C_INTIALIZE
    _TMR1_Reload->_TMR1_WriteTimer
    _SYSTEM_Initialize->_TMR1_Initialize
    _TMR1_Initialize->_TMR1_SetInterruptHandler
    _EUSART1_Initialize->_EUSART1_SetErrorHandler
    _EUSART1_Initialize->_EUSART1_SetFramingErrorHandler
    _EUSART1_Initialize->_EUSART1_SetOverrunErrorHandler
    _EUSART1_Initialize->_EUSART1_SetRxInterruptHandler
    _EUSART1_Initialize->_EUSART1_SetTxInterruptHandler
    _ADC_Initialize->_ADC_SetInterruptHandler
    _MAX517_Update->_i2c_write
    _I2C_INTIALIZE->___aldiv
    _EEPROM_WritePg->_i2c_write
    _EEPROM_ReadPg->_i2c_read
    _EEPROM_ReadPg->_i2c_write

Critical Paths under _INTERRUPT_InterruptManagerLow in COMRAM

    None.

Critical Paths under _INTERRUPT_InterruptManagerHigh in COMRAM

    _TMR1_ISR->i2_TMR1_WriteTimer
    _ADC_DefaultInterruptHandler->_ADC_GetConversionResult

Critical Paths under _main in BANK0

    None.

Critical Paths under _INTERRUPT_InterruptManagerLow in BANK0

    None.

Critical Paths under _INTERRUPT_InterruptManagerHigh in BANK0

    None.

Critical Paths under _main in BANK1

    None.

Critical Paths under _INTERRUPT_InterruptManagerLow in BANK1

    None.

Critical Paths under _INTERRUPT_InterruptManagerHigh in BANK1

    None.

Critical Paths under _main in BANK2

    None.

Critical Paths under _INTERRUPT_InterruptManagerLow in BANK2

    None.

Critical Paths under _INTERRUPT_InterruptManagerHigh in BANK2

    None.

Critical Paths under _main in BANK3

    None.

Critical Paths under _INTERRUPT_InterruptManagerLow in BANK3

    None.

Critical Paths under _INTERRUPT_InterruptManagerHigh in BANK3

    None.

Critical Paths under _main in BANK4

    None.

Critical Paths under _INTERRUPT_InterruptManagerLow in BANK4

    None.

Critical Paths under _INTERRUPT_InterruptManagerHigh in BANK4

    None.

Critical Paths under _main in BANK5

    None.

Critical Paths under _INTERRUPT_InterruptManagerLow in BANK5

    None.

Critical Paths under _INTERRUPT_InterruptManagerHigh in BANK5

    None.

Critical Paths under _main in BANK6

    None.

Critical Paths under _INTERRUPT_InterruptManagerLow in BANK6

    None.

Critical Paths under _INTERRUPT_InterruptManagerHigh in BANK6

    None.

Critical Paths under _main in BANK7

    None.

Critical Paths under _INTERRUPT_InterruptManagerLow in BANK7

    None.

Critical Paths under _INTERRUPT_InterruptManagerHigh in BANK7

    None.

Critical Paths under _main in BANK8

    None.

Critical Paths under _INTERRUPT_InterruptManagerLow in BANK8

    None.

Critical Paths under _INTERRUPT_InterruptManagerHigh in BANK8

    None.

Critical Paths under _main in BANK9

    None.

Critical Paths under _INTERRUPT_InterruptManagerLow in BANK9

    None.

Critical Paths under _INTERRUPT_InterruptManagerHigh in BANK9

    None.

Critical Paths under _main in BANK10

    None.

Critical Paths under _INTERRUPT_InterruptManagerLow in BANK10

    None.

Critical Paths under _INTERRUPT_InterruptManagerHigh in BANK10

    None.

Critical Paths under _main in BANK11

    None.

Critical Paths under _INTERRUPT_InterruptManagerLow in BANK11

    None.

Critical Paths under _INTERRUPT_InterruptManagerHigh in BANK11

    None.

Critical Paths under _main in BANK12

    None.

Critical Paths under _INTERRUPT_InterruptManagerLow in BANK12

    None.

Critical Paths under _INTERRUPT_InterruptManagerHigh in BANK12

    None.

Critical Paths under _main in BANK13

    None.

Critical Paths under _INTERRUPT_InterruptManagerLow in BANK13

    None.

Critical Paths under _INTERRUPT_InterruptManagerHigh in BANK13

    None.

Critical Paths under _main in BANK14

    None.

Critical Paths under _INTERRUPT_InterruptManagerLow in BANK14

    None.

Critical Paths under _INTERRUPT_InterruptManagerHigh in BANK14

    None.

Call Graph Tables:

 ---------------------------------------------------------------------------------
 (Depth) Function   	        Calls       Base Space   Used Autos Params    Refs
 ---------------------------------------------------------------------------------
 (0) _main                                                 4     4      0    2841
                                              0 BANK0      2     2      0
                _ADC_StartConversion
                      _EEPROM_ReadPg
                     _EEPROM_WritePg
                      _I2C_INTIALIZE
                      _MAX517_Update
                  _SYSTEM_Initialize
                        _TMR1_Reload
 ---------------------------------------------------------------------------------
 (1) _TMR1_Reload                                          0     0      0     214
                    _TMR1_WriteTimer
 ---------------------------------------------------------------------------------
 (2) _TMR1_WriteTimer                                      2     0      2     214
                                             15 COMRAM     2     0      2
 ---------------------------------------------------------------------------------
 (1) _SYSTEM_Initialize                                    0     0      0     686
                     _ADC_Initialize
                 _EUSART1_Initialize
                     _I2C_Initialize
               _INTERRUPT_Initialize
              _OSCILLATOR_Initialize
             _PIN_MANAGER_Initialize
                    _TMR0_Initialize
                    _TMR1_Initialize
 ---------------------------------------------------------------------------------
 (2) _TMR1_Initialize                                      2     2      0      98
                                             17 COMRAM     2     2      0
           _TMR1_SetInterruptHandler
 ---------------------------------------------------------------------------------
 (3) _TMR1_SetInterruptHandler                             2     0      2      98
                                             15 COMRAM     2     0      2
 ---------------------------------------------------------------------------------
 (2) _TMR0_Initialize                                      2     2      0       0
                                             15 COMRAM     2     2      0
 ---------------------------------------------------------------------------------
 (2) _PIN_MANAGER_Initialize                               0     0      0       0
 ---------------------------------------------------------------------------------
 (2) _OSCILLATOR_Initialize                                0     0      0       0
 ---------------------------------------------------------------------------------
 (2) _INTERRUPT_Initialize                                 0     0      0       0
 ---------------------------------------------------------------------------------
 (2) _I2C_Initialize                                       0     0      0       0
 ---------------------------------------------------------------------------------
 (2) _EUSART1_Initialize                                   0     0      0     490
            _EUSART1_SetErrorHandler
     _EUSART1_SetFramingErrorHandler
     _EUSART1_SetOverrunErrorHandler
      _EUSART1_SetRxInterruptHandler
      _EUSART1_SetTxInterruptHandler
 ---------------------------------------------------------------------------------
 (3) _EUSART1_SetTxInterruptHandler                        2     0      2      98
                                             15 COMRAM     2     0      2
 ---------------------------------------------------------------------------------
 (3) _EUSART1_SetRxInterruptHandler                        2     0      2      98
                                             15 COMRAM     2     0      2
 ---------------------------------------------------------------------------------
 (3) _EUSART1_SetOverrunErrorHandler                       2     0      2      98
                                             15 COMRAM     2     0      2
 ---------------------------------------------------------------------------------
 (3) _EUSART1_SetFramingErrorHandler                       2     0      2      98
                                             15 COMRAM     2     0      2
 ---------------------------------------------------------------------------------
 (3) _EUSART1_SetErrorHandler                              2     0      2      98
                                             15 COMRAM     2     0      2
 ---------------------------------------------------------------------------------
 (2) _ADC_Initialize                                       0     0      0      98
            _ADC_SetInterruptHandler
 ---------------------------------------------------------------------------------
 (3) _ADC_SetInterruptHandler                              2     0      2      98
                                             15 COMRAM     2     0      2
 ---------------------------------------------------------------------------------
 (1) _MAX517_Update                                        1     1      0      44
                                             16 COMRAM     1     1      0
                          _i2c_start
                           _i2c_stop
                          _i2c_write
 ---------------------------------------------------------------------------------
 (1) _I2C_INTIALIZE                                        7     4      3     550
                                             29 COMRAM     7     4      3
                            ___aldiv
 ---------------------------------------------------------------------------------
 (2) ___aldiv                                             14     6      8     452
                                             15 COMRAM    14     6      8
 ---------------------------------------------------------------------------------
 (1) _EEPROM_WritePg                                      13     9      4     549
                                             16 COMRAM    13     9      4
                          _i2c_start
                           _i2c_stop
                          _i2c_write
 ---------------------------------------------------------------------------------
 (2) _i2c_stop                                             0     0      0       0
 ---------------------------------------------------------------------------------
 (1) _EEPROM_ReadPg                                       13     9      4     773
                                             16 COMRAM    13     9      4
                           _i2c_read
                          _i2c_start
                          _i2c_write
 ---------------------------------------------------------------------------------
 (2) _i2c_write                                            1     1      0      22
                                             15 COMRAM     1     1      0
 ---------------------------------------------------------------------------------
 (2) _i2c_start                                            0     0      0       0
 ---------------------------------------------------------------------------------
 (2) _i2c_read                                             1     1      0      22
                                             15 COMRAM     1     1      0
 ---------------------------------------------------------------------------------
 (1) _ADC_StartConversion                                  2     2      0      22
                                             15 COMRAM     2     2      0
 ---------------------------------------------------------------------------------
 Estimated maximum stack depth 3
 ---------------------------------------------------------------------------------
 (Depth) Function   	        Calls       Base Space   Used Autos Params    Refs
 ---------------------------------------------------------------------------------
 (4) _INTERRUPT_InterruptManagerLow                        7     7      0       0
                                              8 COMRAM     7     7      0
                   Absolute function *
                _EUSART1_Receive_ISR *
               _EUSART1_Transmit_ISR *
 ---------------------------------------------------------------------------------
 (5) _EUSART1_Transmit_ISR                                 0     0      0       0
 ---------------------------------------------------------------------------------
 (5) _EUSART1_Receive_ISR                                  0     0      0       0
                   Absolute function *
        _EUSART1_DefaultErrorHandler *
 _EUSART1_DefaultFramingErrorHandler *
 _EUSART1_DefaultOverrunErrorHandler *
              _EUSART1_RxDataHandler
 ---------------------------------------------------------------------------------
 (6) _EUSART1_DefaultOverrunErrorHandler                   0     0      0       0
 ---------------------------------------------------------------------------------
 (6) _EUSART1_DefaultFramingErrorHandler                   0     0      0       0
 ---------------------------------------------------------------------------------
 (6) _EUSART1_DefaultErrorHandler                          0     0      0       0
              _EUSART1_RxDataHandler
 ---------------------------------------------------------------------------------
 (6) _EUSART1_RxDataHandler                                0     0      0       0
 ---------------------------------------------------------------------------------
 (10) Absolute function(Fake)                              2     0      2       0
 ---------------------------------------------------------------------------------
 Estimated maximum stack depth 10
 ---------------------------------------------------------------------------------
 (Depth) Function   	        Calls       Base Space   Used Autos Params    Refs
 ---------------------------------------------------------------------------------
 (8) _INTERRUPT_InterruptManagerHigh                       4     4      0     114
                                              4 COMRAM     4     4      0
                            _ADC_ISR
                           _TMR1_ISR
 ---------------------------------------------------------------------------------
 (9) _TMR1_ISR                                             0     0      0     114
                   Absolute function *
       _TMR1_DefaultInterruptHandler *
                  i2_TMR1_WriteTimer
 ---------------------------------------------------------------------------------
 (10) i2_TMR1_WriteTimer                                   2     0      2     114
                                              0 COMRAM     2     0      2
 ---------------------------------------------------------------------------------
 (10) _TMR1_DefaultInterruptHandler                        0     0      0       0
 ---------------------------------------------------------------------------------
 (9) _ADC_ISR                                              0     0      0       0
                   Absolute function *
        _ADC_DefaultInterruptHandler *
 ---------------------------------------------------------------------------------
 (10) _ADC_DefaultInterruptHandler                         0     0      0       0
            _ADC_GetConversionResult
 ---------------------------------------------------------------------------------
 (11) _ADC_GetConversionResult                             4     2      2       0
                                              0 COMRAM     4     2      2
 ---------------------------------------------------------------------------------
 (10) Absolute function(Fake)                              2     0      2       0
 ---------------------------------------------------------------------------------
 Estimated maximum stack depth 11
 ---------------------------------------------------------------------------------

 Call Graph Graphs:

 _main (ROOT)
   _ADC_StartConversion
   _EEPROM_ReadPg
     _i2c_read
     _i2c_start
     _i2c_write
   _EEPROM_WritePg
     _i2c_start
     _i2c_stop
     _i2c_write
   _I2C_INTIALIZE
     ___aldiv
   _MAX517_Update
     _i2c_start
     _i2c_stop
     _i2c_write
   _SYSTEM_Initialize
     _ADC_Initialize
       _ADC_SetInterruptHandler
     _EUSART1_Initialize
       _EUSART1_SetErrorHandler
       _EUSART1_SetFramingErrorHandler
       _EUSART1_SetOverrunErrorHandler
       _EUSART1_SetRxInterruptHandler
       _EUSART1_SetTxInterruptHandler
     _I2C_Initialize
     _INTERRUPT_Initialize
     _OSCILLATOR_Initialize
     _PIN_MANAGER_Initialize
     _TMR0_Initialize
     _TMR1_Initialize
       _TMR1_SetInterruptHandler
   _TMR1_Reload
     _TMR1_WriteTimer

 _INTERRUPT_InterruptManagerLow (ROOT)
   Absolute function(Fake) *
   _EUSART1_Receive_ISR *
     Absolute function(Fake) *
     _EUSART1_DefaultErrorHandler *
       _EUSART1_RxDataHandler
     _EUSART1_DefaultFramingErrorHandler *
     _EUSART1_DefaultOverrunErrorHandler *
     _EUSART1_RxDataHandler *
   _EUSART1_Transmit_ISR *

 _INTERRUPT_InterruptManagerHigh (ROOT)
   _ADC_ISR
     Absolute function(Fake) *
     _ADC_DefaultInterruptHandler *
       _ADC_GetConversionResult
   _TMR1_ISR
     Absolute function(Fake) *
     _TMR1_DefaultInterruptHandler *
     i2_TMR1_WriteTimer *

 Address spaces:
Name               Size   Autos  Total    Cost      Usage
BIGRAM             E40      0       0      35        0.0%
EEDATA             400      0       0       0        0.0%
BITBANK13          100      0       0      31        0.0%
BANK13             100      0       0      32        0.0%
BITBANK12          100      0       0      29        0.0%
BANK12             100      0       0      30        0.0%
BITBANK11          100      0       0      27        0.0%
BANK11             100      0       0      28        0.0%
BITBANK10          100      0       0      25        0.0%
BANK10             100      0       0      26        0.0%
BITBANK9           100      0       0      23        0.0%
BANK9              100      0       0      24        0.0%
BITBANK8           100      0       0      21        0.0%
BANK8              100      0       0      22        0.0%
BITBANK7           100      0       0      19        0.0%
BANK7              100      0       0      20        0.0%
BITBANK6           100      0       0      17        0.0%
BANK6              100      0       0      18        0.0%
BITBANK5           100      0       0      15        0.0%
BANK5              100      0       0      16        0.0%
BITBANK4           100      0       0      13        0.0%
BANK4              100      0       0      14        0.0%
BITBANK3           100      0       0      11        0.0%
BANK3              100      0      80      12       50.0%
BITBANK2           100      0       0       9        0.0%
BANK2              100      0     100      10      100.0%
BITBANK1           100      0       0       7        0.0%
BANK1              100      0     100       8      100.0%
BITBANK0            A0      0       0       4        0.0%
BANK0               A0      2      66       5       63.7%
BITCOMRAM           5E      0       0       0        0.0%
COMRAM              5E     24      4E       1       83.0%
BITBANK14           41      0       0      33        0.0%
BANK14              41      0       0      34        0.0%
BITSFR_2             0      0       0     200        0.0%
SFR_2                0      0       0     200        0.0%
BITSFR_1             0      0       0     200        0.0%
SFR_1                0      0       0     200        0.0%
BITSFR               0      0       0     200        0.0%
SFR                  0      0       0     200        0.0%
STACK                0      0       0       2        0.0%
NULL                 0      0       0       0        0.0%
ABS                  0      0     334       6        0.0%
DATA                 0      0     334       3        0.0%
CODE                 0      0       0       0        0.0%


Microchip Technology PIC18 Macro Assembler V2.32 build 20210201212658 
Symbol Table                                                                                   Sun Aug 22 20:14:49 2021

                      _eusart1TxBufferRemaining 0038                                     _SSPSTATbits 000FC7  
                                            bsr 000FE0                                 _timer0ReloadVal 0025  
                                           l135 1A5E                                             l340 1C9A  
                                           l165 1BA6                                             l343 1CAE  
                                           l280 18B4                                             l168 1C58  
                                           l337 1CA4                                             l346 1C86  
                                           l187 1C72                                             l349 1C90  
                                           l810 1BDE                                             l458 1C0A  
                                           l725 1A28                                             l742 1C66  
                                           l807 1B84                                             l832 1CB8  
                                           l755 1C7C                                             l739 1B12  
                                           l856 1B60                                             l944 0FA2  
                                           l955 105A                                             l972 12E8  
                               _timer1ReloadVal 002B                                 __end_of_ADC_ISR 1AC2  
               __end_of_ADC_SetInterruptHandler 1CBA                                             tosl 000FFD  
                                           wreg 000FE8                                      _TXSTA1bits 000FAC  
                  ?_ADC_DefaultInterruptHandler 0001                                    _I2C_DO_RESET 000000  
                                          l1100 1A66                                            l1103 1A80  
                                          l1111 1BF4                                            l1112 1BF6  
                                          l1105 1A8E                                            l1106 1A90  
                                          l1044 1584                                            l1109 1BE6  
                                          l1055 14E2                                            l1135 1BC4  
                                          l1049 15C6                                            l1217 13FA  
                                          l1082 1C22                                            l1090 1C1C  
                                          l1091 1C1E                                            l1084 1C30  
                                          l1085 1C32                                            l1079 1976  
                                          l1088 1C0E                                            l3200 1C92  
                                          l3202 1CA6                                            l3300 1872  
                                          l3220 1C74                                            l3222 1CB0  
                                          l3302 187E                                            l3400 1C20  
                                          l3304 188A                                            l3240 1A46  
                                          l3410 1A7E                                            l3402 1BE2  
                                          l3306 18B2                                            l3250 1C08  
                                          l3242 1A4C                                            l3330 1AEC  
                                          l3404 1C0C                                            l3420 1316  
                                          l3412 12F0                                            l3252 1C48  
                                          l3244 1A5C                                            l3260 19F4  
                                          l3332 1AFA                                            l3340 1B0A  
                                          l3406 1A62                                            l3430 135E  
                                          l3422 1324                                            l3414 12F4  
                                          l3254 1B62                                            l3246 1C68  
                                          l3238 1A2A                                            l3270 1A18  
                                          l3262 19F8                                            l3510 1B86  
                                          l3342 1B0E                                            l3334 1AFC  
                                          l3408 1A74                                            l3440 13A8  
                                          l3432 1366                                            l3424 1334  
                                          l3416 1302                                            l3256 1B76  
                                          l3248 1BF8                                            l3280 1B5A  
                                          l3272 1A24                                            l3264 19FE  
                                          l3520 1B9A                                            l3512 1B8A  
                                          l3336 1B00                                            l3610 1BDA  
                                          l3450 13DA                                            l3442 13B8  
                                          l3434 1372                                            l3426 1338  
                                          l3418 1312                                            l3258 1B78  
                                          l3194 1C88                                            l3290 185E  
                                          l3282 1B5C                                            l3274 1B3C  
                                          l3266 1A00                                            l3522 1B9E  
                                          l3514 1B8E                                            l3338 1B04  
                                          l3612 1BDC                                            l3452 13EA  
                                          l3444 13BA                                            l3436 1380  
                                          l3428 1348                                            l3620 192C  
                                          l3196 1C7E                                            l3292 1862  
                                          l3284 1842                                            l3276 1B40  
                                          l3268 1A16                                            l3524 1BA2  
                                          l3516 1B92                                            l3630 146A  
                                          l3622 13FC                                            l3446 13C4  
                                          l3438 138A                                            l3614 191E  
                                          l3198 1C9C                                            l3294 1866  
                                          l3286 1844                                            l3278 1B44  
                                          l3518 1B96                                            l3606 1C5A  
                                          l4510 0F30                                            l3608 1BC8  
                                          l3632 1470                                            l3624 140E  
                                          l3448 13CA                                            l3616 1926  
                                          l3296 186A                                            l3288 1850  
                                          l4600 10D4                                            l4520 0F58  
                                          l4512 0F48                                            l4504 0F28  
                                          l3642 14A8                                            l3634 1474  
                                          l3626 1430                                            l3618 192A  
                                          l3298 186E                                            l4610 10F6  
                                          l4602 10E8                                            l4530 0F94  
                                          l4522 0F5C                                            l4514 0F48  
                                          l4506 0F2C                                            l3644 14BC  
                                          l3636 14A4                                            l3628 1464  
                                          l3660 154C                                            l4620 1130  
                                          l4604 10EC                                            l4612 10F8  
                                          l4540 0FF0                                            l4524 0F68  
                                          l4516 0F50                                            l4508 0F2E  
                                          l3646 14BE                                            l3670 155C  
                                          l3662 1552                                            l3654 14E4  
                                          l4630 1168                                            l4622 1134  
                                          l4614 1108                                            l4606 10F0  
                                          l4550 1002                                            l4542 0FF2  
                                          l4534 0FB0                                            l4526 0F6C  
                                          l4518 0F54                                            l3648 14CE  
                                          l3680 15B8                                            l3672 156E  
                                          l3664 1558                                            l3656 14F6  
                                          l4640 1198                                            l4632 116C  
                                          l4616 1118                                            l4624 1140  
                                          l4608 10F4                                            l4560 101C  
                                          l4552 1006                                            l4544 0FF4  
                                          l4536 0FD4                                            l4528 0F7A  
                                          l3674 1570                                            l3658 1518  
                                          l3690 1BBA                                            l4650 11DC  
                                          l4642 11B2                                            l4626 1150  
                                          l4634 1178                                            l4618 111C  
                                          l4570 104C                                            l4562 1020  
                                          l4554 100A                                            l4546 0FF6  
                                          l4538 0FD6                                            l3676 1580  
                                          l3692 1BC0                                            l3684 1BAA  
                                          l4660 121A                                            l4652 11E0  
                                          l4636 1192                                            l4628 1154  
                                          l4644 11B8                                            l4580 10A8  
                                          l4564 1022                                            l4556 100E  
                                          l4548 0FFA                                            l3678 1588  
                                          l3686 1BAE                                            l4670 1268  
                                          l4654 11E2                                            l4662 122C  
                                          l4646 11CA                                            l4638 1196  
                                          l4590 10BA                                            l4582 10AA  
                                          l4574 1068                                            l4558 101A  
                                          l4566 1024                                            l3688 1BB4  
                                          l4680 12BC                                            l4672 1278  
                                          l4664 123C                                            l4656 11F2  
                                          l4648 11DA                                            l4592 10BE  
                                          l4584 10AC                                            l4576 108C  
                                          l4568 1032                                            l4682 12C2  
                                          l4674 128A                                            l4666 124C  
                                          l4658 1208                                            l4594 10C2  
                                          l4586 10AE                                            l4578 108E  
                                          l4684 12C6                                            l4668 1260  
                                          l4596 10C6                                            l4588 10B2  
                                          l4686 12C8                                            l4678 12A2  
                                          l4598 10D2                                            l4688 12E2  
                                          STR_1 0F21                                            _LATA 000F89  
                                          _LATB 000F8A                                            u3007 109A  
                                          _LATC 000F8B                                            u1600 1A74  
                                          _LATD 000F8C                                            u1601 1A70  
                                          u3017 11A4                                            _LATE 000F8D  
                                          u3027 12D4                                            u1620 1A8E  
                                          u1460 1AFA                                            u1621 1A8A  
                                          u1461 1AF6                                            u1630 1302  
                                          u1615 1A7C                                            u1631 12FE  
                                          u1616 1A7E                                            u1640 1324  
                                          u1641 1320                                            u1570 1C30  
                                          u1650 135E                                            u1571 1C2C  
                                          u1651 135A                                            u1580 1BF4  
                                          u1900 14F6                                            u1660 1380  
                                          u1581 1BF0                                            u1901 14F2  
                                          u1661 137C                                            u1590 1C1C  
                                          u1670 13A8                                            u1591 1C18  
                                          u1671 13A4                                            u1920 153C  
                                          u1680 13DA                                            u1840 195A  
                                          u2800 1032                                            u1681 13D6  
                                          u2801 102E                                            u1850 140E  
                                          u1930 1580                                            u2810 105A  
                                          u1851 140A                                            u1931 157C  
                                          u1915 1500                                            u2811 1056  
                                          u1940 15A8                                            u2900 11F2  
                                          u2820 1068                                            u1925 1532  
                                          u1845 1952                                            u2901 11EE  
                                          u2821 1064                                            u1870 1454  
                                          u1950 15C6                                            u2910 121A  
                                          u2830 1078                                            u1951 15C2  
                                          u2911 1216                                            u2831 1072  
                                          u1880 1494                                            u2920 123C  
                                          u2840 1108                                            u2760 0F7A  
                                          u1865 1418                                            u1945 159E  
                                          u2921 1238                                            u2841 1104  
                                          u2761 0F76                                            u1890 14CE  
                                          u2930 124C                                            u2850 1118  
                                          u2770 0FA2                                            u1891 14CA  
                                          u1875 144A                                            u2931 1248  
                                          u2851 1114                                            u2771 0F9E  
                                          u2940 1278                                            u2860 1150  
                                          u2836 107A                                            u2780 0FB0  
                                          u1885 148A                                            u2941 1274  
                                          u2861 114C                                            u2781 0FAC  
                                          u2950 128A                                            u2870 1192  
                                          u2790 0FC0                                            u2951 1286  
                                          u2871 118E                                            u2791 0FBA  
                                          u2960 12BC                                            u2880 11CA  
                                          u2961 12B8                                            u2881 11C6  
                                          u2890 11DA                                            u2891 11D6  
                                          u2796 0FC2                                            u2977 0F86  
                                          u2987 0FE2                                            u2997 103E  
                                          _WPUB 000F5B                         __size_of_EEPROM_WritePg 00E4  
                                          _main 0F28                                            _page 003C  
                                          fsr1h 000FE2                                            fsr2h 000FDA  
                                          indf2 000FDF                                            fsr1l 000FE1  
                                          fsr2l 000FD9                                            btemp 004F  
                                          start 00C6                      ??_TMR1_SetInterruptHandler 0012  
                fp__EUSART1_DefaultErrorHandler 0000                                    ___param_bank 000000  
                                 _I2C_INTIALIZE 191E                         __end_of_TMR0_Initialize 1B62  
                __size_of_OSCILLATOR_Initialize 0012                                   _I2C_DO_RX_ACK 000000  
                 __end_of_OSCILLATOR_Initialize 1C5A                                     _writeBufOne 0200  
                                   _writeBufTwo 0300                           EEPROM_WritePg@product 001A  
                         _eusart1RxStatusBuffer 0060                                 __end_of___aldiv 13FC  
                                         ?_main 0001                                           _T0CON 000FD5  
                                         _T1CON 000FCD                                           i1l201 0070  
                                         i1l205 00A6                                           i1l311 19B4  
                                         i1l321 1686                                           i1l314 19B6  
                                         i1l331 1CBE                                           i1l325 1AEA  
                                         i1l334 1CC4                                           i1l328 1CCA  
                             MAX517_Update@data 0011                                           i2l192 18EA  
                                         i2l196 190A                                           i2l816 1C46  
                                         i2l752 19F2                                           i2l761 17C8  
                                         i2l739 1B3A                                           i2l829 1AC0  
                                         i2l838 1736                                           _TMR0H 000FD7  
                                         _TMR1H 000FCF                                           _TMR0L 000FD6  
                                         _TMR1L 000FCE                                           _TRISA 000F92  
                                         _TRISB 000F93                                           _TRISC 000F94  
                                         _TRISD 000F95                                           _TRISE 000F96  
              __size_of_ADC_GetConversionResult 0014                            _EUSART1_Transmit_ISR 1978  
                              __end_of_TMR1_ISR 19F4                                           _count 0045  
                       __end_of_TMR1_Initialize 1A2A                                           pclath 000FFA  
                                         tablat 000FF5                                           ttemp5 0050  
                                         ttemp6 0053                                           ttemp7 0057  
                                         status 000FD8                                           wtemp8 0050  
         fp__EUSART1_DefaultFramingErrorHandler 0000      __end_of_EUSART1_DefaultFramingErrorHandler 1CCC  
   __size_of_EUSART1_DefaultFramingErrorHandler 0002            ??_EUSART1_DefaultFramingErrorHandler 0009  
           ?_EUSART1_DefaultFramingErrorHandler 0001              _EUSART1_DefaultFramingErrorHandler 1CCA  
                               _TMR1_WriteTimer 1AEC                  ?_INTERRUPT_InterruptManagerLow 0001  
                               __initialization 17CA                      __end_of_EUSART1_Initialize 18B6  
                                  __end_of_main 12F0                                  ?_I2C_INTIALIZE 001E  
                              __end_of_i2c_read 1A92                           __end_of_EEPROM_ReadPg 14E4  
                              __end_of_i2c_stop 1C20                                       ??_ADC_ISR 0005  
                                        ??_main 00C4                                   __activetblptr 000002  
                    ADC_StartConversion@channel 0011                           ?_EUSART1_Transmit_ISR 0001  
                                        _ADCON0 000FC2                                          _ADCON1 000FC1  
                                        _ADCON2 000FC0                                          _ADRESH 000FC4  
                                        _ADRESL 000FC3                                          _ANCON0 000F5D  
                                        _ANCON1 000F5C                                          _T1GCON 000FAA  
                       TMR1_WriteTimer@timerVal 0010                                          i1l3210 1AE4  
                                        i1l3212 1AE8                                          i1l3204 1AC2  
                                        i1l3206 1AD2                                          i1l3208 1AD4  
                                        i1l3326 1CBA                                          i1l3328 1CC0  
                                        i1l3540 1978                                          i1l3550 19AE  
                                        i1l3542 1988                                          i1l3560 1610  
                                        i1l3552 15C8                                          i1l3544 1998  
                                        i1l3570 1682                                          i1l3562 161E  
                                        i1l3554 15D8                                          i1l3546 199A  
                                        i1l3564 162E                                          i1l3556 15E6  
                                        i1l3548 19AA                                          i1l3566 1648  
                                        i1l3558 15F6                                          i1l3568 1664  
                                        i1l3920 0036                                          i1l3922 0044  
                                        i1l3924 0052                                          i1l3926 007E  
                                        i2l3224 1C34                                          i1l3928 008C  
                                        i2l3350 175E                                          i2l3352 176A  
                                        i2l3360 178E                                          i2l3344 1738  
                                        i2l3530 1AA6                                          i2l3362 17A0  
                                        i2l3354 176C                                          i2l3346 174A  
                                        i2l3380 16C4                                          i2l3372 1688  
                                        i2l3364 17AC                                          i2l3356 177E  
                                        i2l3348 174E                                          i2l3460 1B24  
                                        i2l3532 19B8                                          i2l3390 1702  
                                        i2l3382 16C6                                          i2l3374 1694  
                                        i2l3526 1A92                                          i2l3366 17AE  
                                        i2l3358 178A                                          i2l3462 1B28  
                                        i2l3534 19BA                                          i2l3392 1712  
                                        i2l3384 16D8                                          i2l3376 16A4  
                                        i2l3528 1A94                                          i2l3368 17C0  
                                        i2l3464 1B2C                                          i2l3456 1B14  
                                        i2l3536 19C6                                          i2l3394 1714  
                                        i2l3386 16EC                                          i2l3378 16B4  
                                        i2l3458 1B22                                          i2l3466 1B32  
                                        i2l3538 19D8                                          i2l3396 1726  
                                        i2l3388 16F0                                          i2l3468 1B36  
                                        i2l3910 18C6                                          i2l3912 18D4  
                                        i2l3914 18E2                                          i2l3916 18F8  
                                        i2l3918 1906                                          _RCREG1 000FAE  
                                        _RCSTA1 000FAB                                          _OSCCON 000FD3  
                                        _SPBRG1 000FAF                                          _SSPADD 000FC8  
                                        _SSPBUF 000FC9                              __size_of_i2c_start 0014  
                                        _TXREG1 000FAD                              __size_of_i2c_write 0018  
                                        _TXSTA1 000FAC                                          _Nestor 0041  
          __end_of_TMR1_DefaultInterruptHandler 17CA           __size_of_TMR1_DefaultInterruptHandler 0092  
                  _TMR1_DefaultInterruptHandler 1738            __size_of_ADC_DefaultInterruptHandler 00B0  
              __size_of_ADC_SetInterruptHandler 000A                                    ?_TMR1_Reload 0001  
                                     ??___aldiv 0018                                          _bufNum 0037  
                      ?_EUSART1_SetErrorHandler 0010                                          _myFlag 004C  
                              ?_TMR0_Initialize 0001                                          clear_0 17EE  
                                        clear_1 17FC                                          clear_2 1810  
                                        clear_3 1822                                          clear_4 182E  
                                        isa$std 000001                         __size_of_I2C_Initialize 0014  
              ??_EUSART1_SetOverrunErrorHandler 0012                 ?_EUSART1_SetOverrunErrorHandler 0010  
                           _I2C_DO_ADDRESS_NACK 000000                                    __pdataCOMRAM 004C  
                                  __mediumconst 0000                                          tblptrh 000FF7  
                                        tblptrl 000FF6                                          tblptru 000FF8  
       ADC_SetInterruptHandler@InterruptHandler 0010        TMR1_SetInterruptHandler@InterruptHandler 0010  
                       __end_of_TMR1_WriteTimer 1B14                                 _eusart1RxBuffer 0100  
                 __size_of_INTERRUPT_Initialize 000C                                  _EEPROM_WritePg 14E4  
                               _eusart1TxBuffer 0140                                ?_TMR1_Initialize 0001  
              ??_INTERRUPT_InterruptManagerHigh 0005                 ?_INTERRUPT_InterruptManagerHigh 0001  
                             _SYSTEM_Initialize 1B86                                      __accesstop 0060  
                       __end_of__initialization 1834                               EEPROM_WritePg@cnt 0019  
                             EEPROM_WritePg@ptr 0013                              ?_SYSTEM_Initialize 0001  
                                 ___rparam_used 000001                                   _readOneIsFull 0042  
                __size_of_EUSART1_RxDataHandler 002A                   __end_of_EUSART1_RxDataHandler 1AEC  
                       _rdBlkRegCompleteHandler 000000                                 ??_I2C_INTIALIZE 0021  
                  __size_of_ADC_StartConversion 001A                                  __pcstackCOMRAM 0001  
                        _I2C_CallbackReturnStop 000000                           __end_of_MAX517_Update 1BC6  
                           ??_SYSTEM_Initialize 0014                                       ?_TMR1_ISR 0001  
               fp__TMR1_DefaultInterruptHandler 0000                   ?_TMR1_DefaultInterruptHandler 0001  
                             __end_of_i2c_start 1C34                          ??_EUSART1_Transmit_ISR 0009  
                       _ADC_GetConversionResult 1C34                               __end_of_i2c_write 1BF8  
                   __end_of_EUSART1_Receive_ISR 1688                          __end_of_EEPROM_WritePg 15C8  
                     __end_of_SYSTEM_Initialize 1BA8                                   _readTwoIsFull 0043  
                                 _eusart1RxHead 0049                                   _eusart1TxHead 004B  
                                 _eusart1RxTail 0048                                      __pbssBANK0 0060  
                                    __pbssBANK1 0100                                      __pbssBANK2 0200  
                                    __pbssBANK3 0300                                   _eusart1TxTail 004A  
             _EUSART1_TxDefaultInterruptHandler 0035                 ??_EUSART1_SetRxInterruptHandler 0012  
                                     ?_i2c_read 0001                                       ?_i2c_stop 0001  
                                    __pnvCOMRAM 0025                             _I2C_DO_RX_NACK_STOP 000000  
                         _rd1RegCompleteHandler 000000                           _wr1RegCompleteHandler 000000  
               __end_of_EUSART1_SetErrorHandler 1CB0                                 _I2C_DO_TX_EMPTY 000000  
                                    ??_TMR1_ISR 0003                                         _ADC_ISR 1A92  
                       __size_of_ADC_Initialize 0024          __end_of_EUSART1_SetFramingErrorHandler 1CA6  
       __size_of_EUSART1_SetFramingErrorHandler 000A                  _EUSART1_SetFramingErrorHandler 1C9C  
                  ?_EUSART1_DefaultErrorHandler 0001                                         _REFOCON 000F9A  
                                       _OSCCON2 000FD2                                         _OSCTUNE 000F9B  
                                       _SPBRGH1 000F7D                                 ?_EEPROM_WritePg 0011  
                                       _SSPCON1 000FC6                                         _SSPCON2 000FC5  
                                       _SSPSTAT 000FC7                                ?_TMR1_WriteTimer 0010  
                                     _I2C_DO_RX 000000                                       _I2C_DO_TX 000000  
                                    ??_i2c_read 0010                                      ??_i2c_stop 0010  
                                    _myAdcValue 003E                            _ADC_InterruptHandler 0027  
                                       __Hparam 0000                         _ADC_SetInterruptHandler 1CB0  
                                       __Lparam 0000                                      _readBufOne 0180  
                                    _readBufTwo 0280                                         ___aldiv 12F0  
                                  __psmallconst 0F00                       ??_ADC_GetConversionResult 0003  
                          __size_of_TMR1_Reload 000E                                         __pcinit 17CA  
                                _I2C_Initialize 1BF8                                         __ramtop 0F00  
                                       __ptext0 0F28                                         __ptext1 1C5A  
                                       __ptext2 1AEC                                         __ptext3 1B86  
                                       __ptext4 19F4                                         __ptext5 1C74  
                                       __ptext6 1B3C                                         __ptext7 1A2A  
                                       __ptext8 1C48                                         __ptext9 1C68  
                                     _T0CONbits 000FD5                  ??_TMR1_DefaultInterruptHandler 0001  
                                     _T1CONbits 000FCD                           _OSCILLATOR_Initialize 1C48  
             __size_of_TMR1_SetInterruptHandler 000A                                ___aldiv@dividend 0010  
                            _EUSART1_Initialize 1842                        ??_PIN_MANAGER_Initialize 0010  
                     ?_TMR1_SetInterruptHandler 0010                                         _myState 004E  
                                    _myPlayFlag 004D                   ??_EUSART1_DefaultErrorHandler 0009  
                    __size_of_SYSTEM_Initialize 0022                                  __pintcode_body 18B6  
                          end_of_initialization 1834                             ?_EUSART1_Initialize 0001  
                                 __Lmediumconst 0000                     _EUSART1_OverrunErrorHandler 002F  
                                       int_func 18B6           __end_of_EUSART1_SetRxInterruptHandler 1C92  
        __size_of_EUSART1_SetRxInterruptHandler 000A                   _EUSART1_SetRxInterruptHandler 1C88  
                              ___aldiv@quotient 001A                                         postdec1 000FE5  
                                       postinc0 000FEE                          __end_of_I2C_Initialize 1C0C  
                          ??_EUSART1_Initialize 0012                                       _PORTEbits 000F84  
                                 i2c_write@data 0010             __end_of_ADC_DefaultInterruptHandler 1738  
                   _ADC_DefaultInterruptHandler 1688                                       _TRISCbits 000F94  
                           _ADC_StartConversion 1BC6                         fp__EUSART1_Transmit_ISR 0000  
              __size_of_EUSART1_SetErrorHandler 000A                              EEPROM_WritePg@page 0011  
                        __size_of_EEPROM_ReadPg 00E8                   ??_ADC_DefaultInterruptHandler 0005  
                                   _I2C_DO_IDLE 000000                                     _I2C_DO_RCEN 000000  
                     ??_ADC_SetInterruptHandler 0012                        _I2C_DO_SEND_RESTART_READ 000000  
          __size_of_EUSART1_DefaultErrorHandler 0006                            ?_ADC_StartConversion 0001  
                  __end_of_INTERRUPT_Initialize 1C74                                 ?_I2C_Initialize 0001  
                       _I2C_CallbackReturnReset 000000                       i2TMR1_WriteTimer@timerVal 0001  
                                 __pidataCOMRAM 1CC6                               __size_of_TMR1_ISR 003C  
                                _ADC_Initialize 1B62                          ?_OSCILLATOR_Initialize 0001  
                           start_initialization 17CA                        __size_of_TMR0_Initialize 0026  
               __size_of_PIN_MANAGER_Initialize 0036                                       _i2c_start 1C20  
                                     _i2c_write 1BE0   EUSART1_SetRxInterruptHandler@interruptHandler 0010  
 EUSART1_SetTxInterruptHandler@interruptHandler 0010                          fp__EUSART1_Receive_ISR 0000  
                        _I2C_DO_RX_NACK_RESTART 000000                               __size_of_i2c_read 0032  
                             __size_of_i2c_stop 0014                           ??_ADC_StartConversion 0010  
                      __size_of_TMR1_Initialize 0036                           __end_of_I2C_INTIALIZE 1978  
                         _EUSART1_RxDataHandler 1AC2                  ?_EUSART1_SetRxInterruptHandler 0010  
                        __end_of_ADC_Initialize 1B86                                        ?_ADC_ISR 0001  
                                 _EEPROM_ReadPg 13FC                                _I2C_DO_SEND_STOP 000000  
                                _eusart1RxCount 0047                              I2C_INTIALIZE@clock 001E  
                             _i2c_fsmStateTable 0F01                                ??_EEPROM_WritePg 0015  
                         _I2C_DO_SEND_ADR_WRITE 000000                                     __pbssCOMRAM 0039  
             _EUSART1_RxDefaultInterruptHandler 0033                   __size_of_EUSART1_Transmit_ISR 0040  
                                 __pcstackBANK0 00C4                                      ?_i2c_start 0001  
                                    ?_i2c_write 0001                          __size_of_MAX517_Update 001E  
               ??_EUSART1_SetTxInterruptHandler 0012                ??_EUSART1_SetFramingErrorHandler 0012  
               ?_EUSART1_SetFramingErrorHandler 0010                    __size_of_EUSART1_Receive_ISR 00C0  
                     _I2C_DO_SEND_RESTART_WRITE 000000                               _numOfBytesWritten 0039  
                         _rd2RegCompleteHandler 000000                          _PIN_MANAGER_Initialize 1A2A  
                         _wr2RegCompleteHandler 000000                                       __pintcode 0008  
              __end_of_TMR1_SetInterruptHandler 1C7E                                        ?___aldiv 0010  
                                     _bufNumber 0044                                 ?_ADC_Initialize 0001  
                                ?_EEPROM_ReadPg 0011                                     __pintcodelo 0018  
                     __end_of_i2c_fsmStateTable 0F21                                     __smallconst 0F00  
                                      _I2C_STOP 007E3C                                        _BAUDCON1 000FA7  
         fp__EUSART1_DefaultOverrunErrorHandler 0000      __end_of_EUSART1_DefaultOverrunErrorHandler 1CC0  
   __size_of_EUSART1_DefaultOverrunErrorHandler 0006            ??_EUSART1_DefaultOverrunErrorHandler 0009  
           ?_EUSART1_DefaultOverrunErrorHandler 0001              _EUSART1_DefaultOverrunErrorHandler 1CBA  
                          _EUSART1_ErrorHandler 002D                         _EUSART1_SetErrorHandler 1CA6  
                              i2c_read@ACK_NACK 0010                            _INTERRUPT_Initialize 1C68  
                               ___aldiv@divisor 0014                               ??_TMR0_Initialize 0010  
                               ___aldiv@counter 0018         EUSART1_SetErrorHandler@interruptHandler 0010  
                                      _LATCbits 000F8B                                        _IPR1bits 000F9F  
                                      _PIE1bits 000F9D                                        i1u140_20 1AE4  
                                      i1u140_21 1AE0                                        i1u223_20 0044  
                                      i1u223_21 0040                                        i1u224_20 0052  
                                      i1u224_21 004E                                        i1u226_20 007E  
                                      i1u225_28 0058                                        i1u226_21 007A  
                                      i1u225_29 006C                                        i1u227_20 008C  
                                      i1u227_21 0088                                        i1u180_20 1664  
                                      i1u180_21 1660                                        i1u228_28 0092  
                                      i1u228_29 00A6                                        i1u181_28 166A  
                                      i1u174_20 1988                                        i1u181_29 167E  
                                      i1u174_21 1984                                        i1u175_20 19AA  
                                      i1u175_21 19A6                        __size_of_TMR1_WriteTimer 0028  
                                      i1u176_20 15E6                                        i1u176_21 15E2  
                                      i1u178_20 161E                                        i1u177_28 15FC  
                                      i1u178_21 161A                                        i1u177_29 1610  
                                      i1u179_28 1634                                        i1u179_29 1648  
                                      i2u220_40 18E2                                        i2u220_41 18DE  
                                      i2u221_40 18F8                                        i2u221_41 18F4  
                                      i2u150_40 17A0                                        i2u222_40 1906  
                                      i2u150_41 179C                                        i2u222_41 1902  
                                      i2u151_40 17C0                                        i2u151_41 17BC  
                                      i2u152_40 16A4                                        i2u152_41 16A0  
                                      i2u153_40 16B4                                        i2u153_41 16B0  
                                      i2u154_40 16D8                                        i2u170_40 1AA6  
                                      i2u154_41 16D4                                        i2u170_41 1AA2  
                                      i2u155_40 1702                                        i2u147_40 174A  
                                      i2u219_40 18D4                                        i2u155_41 16FE  
                                      i2u147_41 1746                                        i2u219_41 18D0  
                                      i2u156_40 1726                                        i2u171_48 1AAC  
                                      i2u148_40 175E                                        i2u172_40 19D8  
                                      i2u156_41 1722                                        i2u171_49 1AC0  
                                      i2u148_41 175A                                        i2u172_41 19D4  
                                      i2u149_40 177E                                        i2u149_41 177A  
                                      i2u173_48 19DE                                        i2u173_49 19F2  
                                      i2u169_40 1B22                                        i2u169_41 1B1E  
                                      _PIR1bits 000F9E                                        _PIR2bits 000FA1  
                        ?_EUSART1_RxDataHandler 0001                                        _RCONbits 000FD0  
                                 ??_TMR1_Reload 0012                  fp__ADC_DefaultInterruptHandler 0000  
                                      _TMR1_ISR 19B8                                   _MAX517_Update 1BA8  
                             ??_TMR1_Initialize 0012                                __size_of_ADC_ISR 0030  
                                    _ADCON0bits 000FC2                                     ??_i2c_start 0010  
                                   ??_i2c_write 0010                                     _INTCON2bits 000FF1  
                         ?_INTERRUPT_Initialize 0001                                      _I2C_Status 00A0  
                                      _i2c_read 1A60                                        _i2c_stop 1C0C  
                              ??_I2C_Initialize 0010           __end_of_EUSART1_SetTxInterruptHandler 1C88  
        __size_of_EUSART1_SetTxInterruptHandler 000A                   _EUSART1_SetTxInterruptHandler 1C7E  
                                      __Hrparam 0000                               i2_TMR1_WriteTimer 1B14  
                                      __Lrparam 0000                        ?_ADC_GetConversionResult 0001  
                               ??_EEPROM_ReadPg 0015                                  ?_MAX517_Update 0001  
                            ?i2_TMR1_WriteTimer 0001                         ??_OSCILLATOR_Initialize 0010  
                              __size_of___aldiv 010C                            _I2C_DO_SEND_ADR_READ 000000  
                   __size_of_EUSART1_Initialize 0074                        _TMR1_SetInterruptHandler 1C74  
                           __end_of_TMR1_Reload 1C68                             ??i2_TMR1_WriteTimer 0003  
                         _TMR1_InterruptHandler 0029                       ??_EUSART1_SetErrorHandler 0012  
           __end_of_EUSART1_DefaultErrorHandler 1CC6                     _EUSART1_DefaultErrorHandler 1CC0  
               ??_INTERRUPT_InterruptManagerLow 0009                            EEPROM_ReadPg@product 0019  
                                      __ptext10 1BF8                                        __ptext11 1842  
                                      __ptext20 191E                                        __ptext12 1C7E  
                                      __ptext21 12F0                                        __ptext13 1C88  
                                    _T1GCONbits 000FAA                                        __ptext30 1978  
                                      __ptext22 14E4                                        __ptext14 1C92  
                                      __ptext31 15C8                                        __ptext23 1C0C  
                                      __ptext15 1C9C                                        __ptext40 1A92  
                                      __ptext32 1CBA                                        __ptext24 13FC  
                                      __ptext16 1CA6                                        __ptext41 1688  
                                      __ptext33 1CCA                                        __ptext25 1BE0  
                                      __ptext17 1B62                                        __ptext42 1C34  
                                      __ptext34 1CC0                                        __ptext26 1C20  
                                      __ptext18 1CB0                                        __ptext43 0000  
                                      __ptext35 1AC2                                        __ptext27 1A60  
                                      __ptext19 1BA8                                        __ptext28 1BC6  
                                      __ptext37 19B8                                        __ptext38 1B14  
                                      __ptext39 1738                                   __size_of_main 03C8  
                     __end_ofi2_TMR1_WriteTimer 1B3C  EUSART1_SetOverrunErrorHandler@interruptHandler 0010  
                                      isa$xinst 000000                                        int$flags 004F  
                             ??_TMR1_WriteTimer 0012                     _EUSART1_FramingErrorHandler 0031  
                           _EUSART1_Receive_ISR 15C8                                      _INTCONbits 000FF2  
                        ??_INTERRUPT_Initialize 0010                        ?_ADC_SetInterruptHandler 0010  
                                      intlevel1 0000                                        intlevel2 0000  
                          ?_EUSART1_Receive_ISR 0001                     __end_of_ADC_StartConversion 1BE0  
                       ?_PIN_MANAGER_Initialize 0001                 __end_of_ADC_GetConversionResult 1C48  
                           _I2C_DO_SEND_RESTART 000000          __end_of_EUSART1_SetOverrunErrorHandler 1C9C  
       __size_of_EUSART1_SetOverrunErrorHandler 000A                  _EUSART1_SetOverrunErrorHandler 1C92  
                                    _RCSTA1bits 000FAB                    __end_of_EUSART1_Transmit_ISR 19B8  
                              ??_ADC_Initialize 0012                                 ??_MAX517_Update 0011  
                                   _TMR1_Reload 1C5A  EUSART1_SetFramingErrorHandler@interruptHandler 0010  
                ?_EUSART1_SetTxInterruptHandler 0010                              _eusart1RxLastError 0046  
        __end_of_INTERRUPT_InterruptManagerHigh 191E         __size_of_INTERRUPT_InterruptManagerHigh 1916  
                _INTERRUPT_InterruptManagerHigh 0008                                 _TMR0_Initialize 1B3C  
                                  ___aldiv@sign 0019                                     _SSPCON1bits 000FC6  
                                   _SSPCON2bits 000FC5                               EEPROM_ReadPg@page 0011  
         __end_of_INTERRUPT_InterruptManagerLow 00C6          __size_of_INTERRUPT_InterruptManagerLow 00AE  
                 _INTERRUPT_InterruptManagerLow 0018                          __size_of_I2C_INTIALIZE 005A  
                         ??_EUSART1_Receive_ISR 0009                  __end_of_PIN_MANAGER_Initialize 1A60  
                              EEPROM_ReadPg@cnt 001D                                EEPROM_ReadPg@ptr 0013  
                    __size_ofi2_TMR1_WriteTimer 0028                         ??_EUSART1_RxDataHandler 0009  
                               _TMR1_Initialize 19F4                                    _stateMachine 0040  
